(dp1
S'04997'
p2
S'ENG23'
p3
sS'04996'
p4
g3
sS'04995'
p5
g3
sS'02109'
p6
S'ENG33'
p7
sS'04993'
p8
g3
sS'04992'
p9
g3
sS'04991'
p10
g3
sS'04990'
p11
g3
sS'02102'
p12
g7
sS'02103'
p13
g7
sS'02100'
p14
g7
sS'02101'
p15
g7
sS'02106'
p16
g7
sS'02107'
p17
g7
sS'02104'
p18
g7
sS'02105'
p19
g7
sS'00852'
p20
S'ENG11'
p21
sS'00853'
p22
g21
sS'00850'
p23
g21
sS'00851'
p24
g21
sS'00856'
p25
g21
sS'00857'
p26
g21
sS'00854'
p27
g21
sS'00855'
p28
g21
sS'00858'
p29
g21
sS'00859'
p30
g21
sS'01455'
p31
S'ENG24'
p32
sS'01454'
p33
g32
sS'01457'
p34
g32
sS'01456'
p35
g32
sS'01451'
p36
g32
sS'01450'
p37
g32
sS'01453'
p38
g32
sS'01452'
p39
g32
sS'01459'
p40
g32
sS'01458'
p41
g32
sS'02108'
p42
g7
sS'04994'
p43
g3
sS'05734'
p44
S'ENG29'
p45
sS'05735'
p46
g45
sS'05736'
p47
g45
sS'05737'
p48
g45
sS'05730'
p49
g45
sS'05731'
p50
g45
sS'05732'
p51
g45
sS'05733'
p52
g45
sS'05738'
p53
g45
sS'05739'
p54
g45
sS'01024'
p55
S'ENG04'
p56
sS'01025'
p57
g56
sS'05228'
p58
S'ENG35'
p59
sS'01027'
p60
g56
sS'01020'
p61
g56
sS'01021'
p62
g56
sS'01022'
p63
g56
sS'01023'
p64
g56
sS'05222'
p65
g59
sS'05223'
p66
g59
sS'05220'
p67
g59
sS'05221'
p68
g59
sS'05226'
p69
g59
sS'05227'
p70
g59
sS'05224'
p71
g59
sS'05225'
p72
g59
sS'03797'
p73
S'ENG05'
p74
sS'03790'
p75
g74
sS'03791'
p76
g74
sS'03020'
p77
S'ENG02'
p78
sS'03021'
p79
g78
sS'04999'
p80
g3
sS'04998'
p81
g3
sS'04175'
p82
S'ENG08'
p83
sS'04174'
p84
g83
sS'04177'
p85
g83
sS'04176'
p86
g83
sS'04171'
p87
g83
sS'04170'
p88
g83
sS'04173'
p89
g83
sS'04172'
p90
g83
sS'04179'
p91
g83
sS'04178'
p92
g83
sS'03772'
p93
g74
sS'03773'
p94
g74
sS'03770'
p95
g74
sS'03771'
p96
g74
sS'03776'
p97
g74
sS'03777'
p98
g74
sS'03774'
p99
g74
sS'03775'
p100
g74
sS'03778'
p101
g74
sS'03779'
p102
g74
sS'02829'
p103
S'ENG01'
p104
sS'02828'
p105
g104
sS'02825'
p106
g104
sS'02824'
p107
g104
sS'02827'
p108
g104
sS'02826'
p109
g104
sS'02821'
p110
g104
sS'02820'
p111
g104
sS'02823'
p112
g104
sS'02822'
p113
g104
sS'01335'
p114
S'ENG19'
p115
sS'00089'
p116
S'ENG37'
p117
sS'00088'
p118
g117
sS'00085'
p119
g117
sS'00084'
p120
g117
sS'00087'
p121
g117
sS'00086'
p122
g117
sS'00081'
p123
g117
sS'00080'
p124
g117
sS'00083'
p125
g117
sS'00082'
p126
g117
sS'01333'
p127
g115
sS'01583'
p128
S'ENG26'
p129
sS'01582'
p130
g129
sS'01581'
p131
g129
sS'03196'
p132
g78
sS'03197'
p133
g78
sS'03194'
p134
g78
sS'03195'
p135
g78
sS'03192'
p136
g78
sS'03193'
p137
g78
sS'03190'
p138
g78
sS'03191'
p139
g78
sS'01587'
p140
g129
sS'03198'
p141
g78
sS'03199'
p142
g78
sS'01585'
p143
g129
sS'01584'
p144
g129
sS'01594'
p145
g129
sS'01595'
p146
g129
sS'01596'
p147
g129
sS'01597'
p148
g129
sS'01590'
p149
g129
sS'01591'
p150
g129
sS'01592'
p151
g129
sS'01593'
p152
g129
sS'01598'
p153
g129
sS'01599'
p154
g129
sS'01848'
p155
g45
sS'01849'
p156
g45
sS'01842'
p157
g45
sS'01843'
p158
g45
sS'01840'
p159
g45
sS'01841'
p160
g45
sS'01846'
p161
g45
sS'01847'
p162
g45
sS'01844'
p163
g45
sS'01845'
p164
g45
sS'00647'
p165
g104
sS'00646'
p166
g104
sS'00645'
p167
g104
sS'00644'
p168
g104
sS'00643'
p169
g104
sS'00642'
p170
g104
sS'00641'
p171
g104
sS'00640'
p172
g104
sS'00649'
p173
g104
sS'00648'
p174
g104
sS'05039'
p175
g32
sS'05038'
p176
g32
sS'05037'
p177
g32
sS'05036'
p178
g32
sS'05035'
p179
g32
sS'05034'
p180
g32
sS'05033'
p181
g32
sS'05032'
p182
g32
sS'05031'
p183
g32
sS'05030'
p184
g32
sS'04618'
p185
S'ENG14'
p186
sS'04619'
p187
g186
sS'04348'
p188
S'ENG10'
p189
sS'04349'
p190
S'ENG09'
p191
sS'04346'
p192
g189
sS'04347'
p193
g189
sS'04612'
p194
g186
sS'04613'
p195
g186
sS'04614'
p196
g186
sS'04615'
p197
g186
sS'04616'
p198
g186
sS'04617'
p199
g186
sS'00508'
p200
g59
sS'00509'
p201
g59
sS'00500'
p202
g59
sS'00501'
p203
g59
sS'00502'
p204
g59
sS'00503'
p205
g59
sS'00504'
p206
g59
sS'00505'
p207
g59
sS'00506'
p208
g59
sS'00507'
p209
g59
sS'05693'
p210
S'ENG28'
p211
sS'05692'
p212
g211
sS'05691'
p213
g211
sS'05690'
p214
g211
sS'05697'
p215
g211
sS'05696'
p216
g211
sS'05695'
p217
g211
sS'05694'
p218
g211
sS'05699'
p219
g211
sS'05698'
p220
g211
sS'03699'
p221
g56
sS'03698'
p222
g56
sS'03349'
p223
S'ENG03'
p224
sS'03348'
p225
g224
sS'03343'
p226
g224
sS'03342'
p227
g224
sS'03341'
p228
g224
sS'03692'
p229
g56
sS'03695'
p230
g56
sS'03346'
p231
g224
sS'03697'
p232
g56
sS'03696'
p233
g56
sS'01279'
p234
S'ENG15'
p235
sS'01278'
p236
g235
sS'01271'
p237
g235
sS'01270'
p238
g186
sS'01273'
p239
g235
sS'01272'
p240
g235
sS'01275'
p241
g235
sS'01274'
p242
g235
sS'01277'
p243
g235
sS'01276'
p244
g235
sS'03527'
p245
g56
sS'03526'
p246
g56
sS'03525'
p247
g56
sS'03524'
p248
g56
sS'03523'
p249
g56
sS'03522'
p250
g56
sS'03521'
p251
g56
sS'03520'
p252
g56
sS'03529'
p253
g56
sS'03528'
p254
g56
sS'02120'
p255
g7
sS'02121'
p256
g7
sS'02122'
p257
g7
sS'02123'
p258
g7
sS'02124'
p259
g7
sS'02125'
p260
g7
sS'02126'
p261
g7
sS'02127'
p262
g7
sS'02128'
p263
g7
sS'02129'
p264
g7
sS'04979'
p265
g3
sS'04978'
p266
g3
sS'04975'
p267
g3
sS'04974'
p268
g3
sS'04977'
p269
g3
sS'04976'
p270
g3
sS'04971'
p271
g3
sS'04970'
p272
g3
sS'04973'
p273
g3
sS'04972'
p274
g3
sS'00878'
p275
S'ENG13'
p276
sS'00879'
p277
g276
sS'00870'
p278
g21
sS'00871'
p279
S'ENG12'
p280
sS'00872'
p281
g280
sS'00873'
p282
g280
sS'00874'
p283
g280
sS'00875'
p284
g280
sS'00876'
p285
g276
sS'00877'
p286
g276
sS'05186'
p287
g7
sS'01473'
p288
g32
sS'01472'
p289
g32
sS'01471'
p290
g32
sS'01470'
p291
g32
sS'01477'
p292
g32
sS'01476'
p293
g32
sS'01475'
p294
g32
sS'01474'
p295
g32
sS'01479'
p296
g32
sS'01478'
p297
g32
sS'03613'
p298
g56
sS'03612'
p299
g56
sS'00492'
p300
g59
sS'03618'
p301
g56
sS'05752'
p302
g45
sS'05201'
p303
S'ENG34'
p304
sS'05202'
p305
g304
sS'05203'
p306
g304
sS'05756'
p307
g45
sS'05757'
p308
g45
sS'05754'
p309
g45
sS'05755'
p310
g45
sS'05208'
p311
g304
sS'05209'
p312
g304
sS'05758'
p313
g45
sS'05759'
p314
g45
sS'01042'
p315
g74
sS'01043'
p316
g74
sS'01040'
p317
g56
sS'01041'
p318
g74
sS'01046'
p319
g74
sS'01047'
p320
g74
sS'01044'
p321
g74
sS'01045'
p322
g74
sS'01048'
p323
g74
sS'01049'
p324
g74
sS'02465'
p325
g117
sS'02464'
p326
g117
sS'02467'
p327
g117
sS'02466'
p328
g117
sS'02461'
p329
g117
sS'02460'
p330
g117
sS'02463'
p331
g117
sS'02462'
p332
g117
sS'02469'
p333
g117
sS'02468'
p334
g117
sS'04153'
p335
g83
sS'04152'
p336
g83
sS'04151'
p337
g83
sS'04150'
p338
g83
sS'04157'
p339
g83
sS'04156'
p340
g83
sS'04155'
p341
g83
sS'04154'
p342
g83
sS'04405'
p343
g189
sS'04404'
p344
g189
sS'04159'
p345
g83
sS'04158'
p346
g83
sS'04401'
p347
g189
sS'04400'
p348
g189
sS'04403'
p349
g189
sS'04402'
p350
g189
sS'03432'
p351
g224
sS'00319'
p352
S'ENG06'
p353
sS'00318'
p354
g74
sS'00315'
p355
g56
sS'00314'
p356
g224
sS'00317'
p357
g74
sS'00316'
p358
g74
sS'00311'
p359
g78
sS'00310'
p360
g78
sS'00313'
p361
g224
sS'00312'
p362
g78
sS'03758'
p363
g56
sS'04607'
p364
g276
sS'03125'
p365
g78
sS'04606'
p366
g276
sS'03750'
p367
g56
sS'03751'
p368
g56
sS'03752'
p369
g56
sS'03753'
p370
g56
sS'03754'
p371
g56
sS'03755'
p372
g56
sS'03756'
p373
g56
sS'03757'
p374
g56
sS'02809'
p375
g104
sS'02808'
p376
g104
sS'02803'
p377
g104
sS'04603'
p378
g276
sS'02801'
p379
g104
sS'02800'
p380
g104
sS'02807'
p381
g104
sS'02806'
p382
g104
sS'02805'
p383
g104
sS'02804'
p384
g104
sS'04601'
p385
g276
sS'04600'
p386
g276
sS'01026'
p387
g56
sS'05229'
p388
g59
sS'01028'
p389
g56
sS'01029'
p390
g56
sS'01860'
p391
g45
sS'01861'
p392
g45
sS'01862'
p393
g45
sS'01863'
p394
g45
sS'01864'
p395
g45
sS'01865'
p396
S'ENG30'
p397
sS'01866'
p398
g397
sS'01867'
p399
g397
sS'01868'
p400
g397
sS'01869'
p401
g397
sS'02399'
p402
S'ENG36'
p403
sS'02258'
p404
g59
sS'02259'
p405
g59
sS'02256'
p406
g59
sS'02257'
p407
g59
sS'02254'
p408
g59
sS'02255'
p409
g59
sS'02252'
p410
g59
sS'02253'
p411
g59
sS'02250'
p412
g59
sS'02251'
p413
g59
sS'02784'
p414
g104
sS'02785'
p415
g104
sS'02786'
p416
g104
sS'02787'
p417
g104
sS'02780'
p418
g104
sS'02781'
p419
g104
sS'02782'
p420
g104
sS'02783'
p421
g104
sS'02788'
p422
g104
sS'02789'
p423
g104
sS'04364'
p424
g189
sS'04365'
p425
g189
sS'04366'
p426
g189
sS'04367'
p427
g189
sS'04360'
p428
g189
sS'04361'
p429
g189
sS'04362'
p430
g189
sS'04363'
p431
g189
sS'01781'
p432
g45
sS'01780'
p433
g45
sS'01783'
p434
g45
sS'01782'
p435
g45
sS'04368'
p436
g189
sS'04369'
p437
g189
sS'01787'
p438
g45
sS'01786'
p439
g45
sS'03321'
p440
g224
sS'03320'
p441
g224
sS'03323'
p442
g224
sS'03322'
p443
g224
sS'03325'
p444
g224
sS'03324'
p445
g224
sS'03327'
p446
g224
sS'03326'
p447
g224
sS'03329'
p448
g224
sS'03328'
p449
g224
sS'05415'
p450
g189
sS'05414'
p451
g189
sS'05417'
p452
g189
sS'05416'
p453
g189
sS'05411'
p454
g189
sS'05410'
p455
g189
sS'05413'
p456
g189
sS'05412'
p457
g189
sS'05419'
p458
g189
sS'05418'
p459
g189
sS'01257'
p460
g276
sS'01256'
p461
g276
sS'01255'
p462
g276
sS'01254'
p463
g276
sS'01253'
p464
g276
sS'01252'
p465
g276
sS'01251'
p466
g276
sS'01250'
p467
g280
sS'01259'
p468
g276
sS'01258'
p469
g276
sS'04092'
p470
g83
sS'04093'
p471
g83
sS'04090'
p472
g83
sS'04091'
p473
g83
sS'04096'
p474
g83
sS'04097'
p475
g83
sS'04094'
p476
g83
sS'04095'
p477
g83
sS'04098'
p478
g83
sS'04099'
p479
g83
sS'00126'
p480
S'ENG38'
p481
sS'00127'
p482
g481
sS'00124'
p483
g481
sS'00125'
p484
g481
sS'00122'
p485
g481
sS'00123'
p486
g481
sS'00120'
p487
g481
sS'00121'
p488
g481
sS'00128'
p489
g481
sS'00129'
p490
g481
sS'04959'
p491
S'ENG22'
p492
sS'04958'
p493
g492
sS'04953'
p494
g492
sS'04952'
p495
g492
sS'04951'
p496
g492
sS'04950'
p497
g492
sS'04957'
p498
g492
sS'04956'
p499
g492
sS'04955'
p500
g492
sS'04954'
p501
g492
sS'01419'
p502
g32
sS'01418'
p503
g32
sS'01411'
p504
g32
sS'01410'
p505
g32
sS'01413'
p506
g32
sS'01412'
p507
g32
sS'01415'
p508
g32
sS'01414'
p509
g32
sS'01417'
p510
g32
sS'01416'
p511
g32
sS'05778'
p512
g397
sS'05779'
p513
g397
sS'05770'
p514
g397
sS'05771'
p515
g45
sS'05772'
p516
g397
sS'05773'
p517
g397
sS'05774'
p518
g397
sS'05775'
p519
g397
sS'05776'
p520
g397
sS'05777'
p521
g397
sS'01068'
p522
g74
sS'01069'
p523
g74
sS'05090'
p524
g129
sS'01060'
p525
g74
sS'01061'
p526
g74
sS'01062'
p527
g74
sS'01063'
p528
g74
sS'01064'
p529
g74
sS'01065'
p530
g74
sS'01066'
p531
g74
sS'01067'
p532
g74
sS'05092'
p533
g129
sS'05547'
p534
g3
sS'05546'
p535
g3
sS'05545'
p536
g3
sS'05544'
p537
g3
sS'02443'
p538
g117
sS'02442'
p539
g117
sS'02441'
p540
g403
sS'02440'
p541
g403
sS'02447'
p542
g117
sS'02446'
p543
g117
sS'02445'
p544
g117
sS'02444'
p545
g117
sS'02449'
p546
g117
sS'02448'
p547
g117
sS'04139'
p548
g83
sS'04138'
p549
g83
sS'04429'
p550
g189
sS'04428'
p551
g189
sS'04423'
p552
g189
sS'04422'
p553
g189
sS'04421'
p554
g189
sS'04132'
p555
g83
sS'04427'
p556
g189
sS'04426'
p557
g189
sS'04137'
p558
g83
sS'04136'
p559
g83
sS'00339'
p560
g83
sS'00338'
p561
g83
sS'00333'
p562
g83
sS'00332'
p563
g353
sS'00331'
p564
g353
sS'00330'
p565
g353
sS'00337'
p566
g83
sS'00336'
p567
g83
sS'00335'
p568
g83
sS'00334'
p569
g83
sS'02861'
p570
g104
sS'02860'
p571
g104
sS'02863'
p572
g104
sS'02862'
p573
g104
sS'02865'
p574
g104
sS'02864'
p575
g104
sS'02867'
p576
g104
sS'02866'
p577
g104
sS'02869'
p578
g104
sS'02868'
p579
g104
sS'04542'
p580
g280
sS'04543'
p581
g280
sS'04544'
p582
g280
sS'04545'
p583
g280
sS'04230'
p584
g191
sS'04547'
p585
g280
sS'01888'
p586
g397
sS'01889'
p587
g397
sS'01886'
p588
g397
sS'01887'
p589
g397
sS'01884'
p590
g397
sS'01885'
p591
g397
sS'01882'
p592
g397
sS'01883'
p593
g397
sS'01880'
p594
g397
sS'01881'
p595
g397
sS'00939'
p596
S'ENG39'
p597
sS'00938'
p598
g597
sS'00935'
p599
g481
sS'00934'
p600
g481
sS'00937'
p601
g597
sS'00936'
p602
g597
sS'00931'
p603
g481
sS'00930'
p604
g481
sS'00933'
p605
g481
sS'00932'
p606
g481
sS'02274'
p607
g59
sS'02275'
p608
g59
sS'02276'
p609
g59
sS'02277'
p610
g59
sS'02270'
p611
g59
sS'02271'
p612
g59
sS'02272'
p613
g59
sS'02273'
p614
g59
sS'00683'
p615
g78
sS'00682'
p616
g78
sS'00681'
p617
g78
sS'00680'
p618
g78
sS'00687'
p619
g78
sS'00686'
p620
g78
sS'00685'
p621
g78
sS'00684'
p622
g78
sS'03905'
p623
g74
sS'03904'
p624
g74
sS'04300'
p625
g191
sS'03906'
p626
g74
sS'03901'
p627
g74
sS'03900'
p628
g74
sS'03903'
p629
g74
sS'04305'
p630
g191
sS'04308'
p631
g191
sS'04309'
p632
g191
sS'03909'
p633
g74
sS'03908'
p634
g74
sS'03659'
p635
g56
sS'03658'
p636
g56
sS'03309'
p637
g224
sS'03308'
p638
g224
sS'03307'
p639
g224
sS'03306'
p640
g224
sS'03305'
p641
g224
sS'03304'
p642
g224
sS'03303'
p643
g224
sS'03302'
p644
g224
sS'03301'
p645
g224
sS'03652'
p646
g56
sS'05433'
p647
g21
sS'05432'
p648
g21
sS'05431'
p649
g21
sS'05430'
p650
g21
sS'05437'
p651
g280
sS'05436'
p652
g280
sS'05435'
p653
g21
sS'05434'
p654
g21
sS'05439'
p655
g280
sS'05438'
p656
g280
sS'00108'
p657
g481
sS'00109'
p658
g481
sS'00104'
p659
g117
sS'00105'
p660
g481
sS'00106'
p661
g481
sS'00107'
p662
g481
sS'00100'
p663
g117
sS'00101'
p664
g117
sS'00102'
p665
g117
sS'00103'
p666
g117
sS'04931'
p667
S'ENG21'
p668
sS'04930'
p669
g668
sS'04933'
p670
g668
sS'04932'
p671
g668
sS'04935'
p672
g668
sS'04934'
p673
g668
sS'04937'
p674
g668
sS'04936'
p675
g668
sS'04939'
p676
g668
sS'04938'
p677
g668
sS'02395'
p678
g403
sS'02394'
p679
g403
sS'01437'
p680
g32
sS'01436'
p681
g32
sS'01435'
p682
g32
sS'01434'
p683
g32
sS'01433'
p684
g32
sS'01432'
p685
g32
sS'01431'
p686
g32
sS'01430'
p687
g32
sS'02398'
p688
g403
sS'01439'
p689
g32
sS'01438'
p690
g32
sS'00746'
p691
g74
sS'00747'
p692
g74
sS'00744'
p693
g74
sS'00745'
p694
g74
sS'00742'
p695
g74
sS'00743'
p696
g74
sS'00740'
p697
g74
sS'00741'
p698
g74
sS'00748'
p699
g74
sS'00749'
p700
g74
sS'02429'
p701
g403
sS'02428'
p702
g403
sS'02421'
p703
g403
sS'02420'
p704
g403
sS'02423'
p705
g403
sS'02422'
p706
g403
sS'02425'
p707
g403
sS'02424'
p708
g403
sS'02427'
p709
g403
sS'02426'
p710
g403
sS'04441'
p711
g21
sS'04440'
p712
g21
sS'04443'
p713
g21
sS'04442'
p714
g21
sS'04445'
p715
g21
sS'04444'
p716
g21
sS'04447'
p717
g21
sS'04446'
p718
g21
sS'04449'
p719
g21
sS'04448'
p720
g21
sS'04119'
p721
g83
sS'04118'
p722
g83
sS'00351'
p723
g83
sS'00350'
p724
g83
sS'00353'
p725
g83
sS'00352'
p726
g83
sS'00355'
p727
g83
sS'00354'
p728
g83
sS'00357'
p729
g83
sS'00356'
p730
g83
sS'00359'
p731
g189
sS'00358'
p732
g83
sS'03466'
p733
g224
sS'03467'
p734
g224
sS'03464'
p735
g224
sS'03465'
p736
g224
sS'03462'
p737
g224
sS'03463'
p738
g224
sS'03460'
p739
g224
sS'03461'
p740
g224
sS'03468'
p741
g224
sS'03469'
p742
g224
sS'02849'
p743
g104
sS'02848'
p744
g104
sS'02847'
p745
g104
sS'02846'
p746
g104
sS'02845'
p747
g104
sS'02844'
p748
g104
sS'02843'
p749
g104
sS'02842'
p750
g104
sS'02841'
p751
g104
sS'02840'
p752
g104
sS'00919'
p753
g117
sS'00918'
p754
g117
sS'00913'
p755
g117
sS'00912'
p756
g117
sS'00911'
p757
g117
sS'00910'
p758
g117
sS'00917'
p759
g117
sS'00916'
p760
g117
sS'00915'
p761
g117
sS'00914'
p762
g117
sS'02212'
p763
g304
sS'02213'
p764
g304
sS'02210'
p765
g304
sS'02211'
p766
g304
sS'02216'
p767
g304
sS'02217'
p768
g304
sS'02214'
p769
g304
sS'02215'
p770
g304
sS'02218'
p771
g304
sS'02219'
p772
g304
sS'05639'
p773
g129
sS'05183'
p774
g7
sS'05182'
p775
g7
sS'05181'
p776
g7
sS'05180'
p777
g7
sS'05187'
p778
g7
sS'05638'
p779
g129
sS'05185'
p780
g7
sS'05184'
p781
g7
sS'05635'
p782
g129
sS'05634'
p783
S'ENG25'
p784
sS'05189'
p785
g7
sS'05188'
p786
g7
sS'05631'
p787
g784
sS'05630'
p788
g784
sS'05633'
p789
g784
sS'05632'
p790
g784
sS'01749'
p791
g211
sS'01748'
p792
g211
sS'01745'
p793
g211
sS'01744'
p794
g211
sS'01747'
p795
g211
sS'01746'
p796
g211
sS'01741'
p797
g211
sS'01740'
p798
g211
sS'01743'
p799
g211
sS'01742'
p800
g211
sS'04328'
p801
g191
sS'03922'
p802
g74
sS'03921'
p803
g74
sS'03920'
p804
g74
sS'03927'
p805
g74
sS'03926'
p806
g74
sS'03925'
p807
g74
sS'03924'
p808
g74
sS'04320'
p809
g191
sS'04321'
p810
g191
sS'04322'
p811
g191
sS'04323'
p812
g191
sS'04324'
p813
g191
sS'04325'
p814
g191
sS'04326'
p815
g191
sS'04327'
p816
g191
sS'03679'
p817
g56
sS'03678'
p818
g56
sS'03673'
p819
g56
sS'03672'
p820
g56
sS'03671'
p821
g56
sS'03670'
p822
g56
sS'03677'
p823
g56
sS'03676'
p824
g56
sS'03675'
p825
g56
sS'03674'
p826
g56
sS'05459'
p827
g235
sS'05458'
p828
g235
sS'05451'
p829
g186
sS'05450'
p830
g186
sS'05453'
p831
g186
sS'05452'
p832
g186
sS'05455'
p833
g186
sS'05454'
p834
g186
sS'05457'
p835
g186
sS'05456'
p836
g235
sS'01299'
p837
S'ENG16'
p838
sS'01298'
p839
g838
sS'01293'
p840
g235
sS'01292'
p841
g235
sS'01291'
p842
g235
sS'01290'
p843
g235
sS'01297'
p844
g235
sS'01296'
p845
g235
sS'01295'
p846
g235
sS'01294'
p847
g235
sS'05637'
p848
g129
sS'04588'
p849
g276
sS'04589'
p850
g276
sS'04584'
p851
g276
sS'04585'
p852
g276
sS'04586'
p853
g276
sS'04587'
p854
g276
sS'04580'
p855
g276
sS'04581'
p856
g276
sS'04582'
p857
g276
sS'04583'
p858
g276
sS'02988'
p859
g78
sS'02989'
p860
g78
sS'02982'
p861
g78
sS'02983'
p862
g78
sS'02980'
p863
g78
sS'02981'
p864
g78
sS'02986'
p865
g78
sS'02987'
p866
g78
sS'02984'
p867
g78
sS'02985'
p868
g78
sS'03581'
p869
g56
sS'03580'
p870
g56
sS'03583'
p871
g56
sS'03582'
p872
g56
sS'03585'
p873
g56
sS'03584'
p874
g56
sS'03587'
p875
g56
sS'03586'
p876
g56
sS'03589'
p877
g56
sS'00163'
p878
g597
sS'00160'
p879
g481
sS'00161'
p880
g481
sS'00166'
p881
g597
sS'00167'
p882
g597
sS'00164'
p883
g597
sS'00165'
p884
g597
sS'02182'
p885
g304
sS'02183'
p886
g304
sS'02180'
p887
g304
sS'02181'
p888
g304
sS'02186'
p889
g304
sS'02187'
p890
g304
sS'02184'
p891
g304
sS'02185'
p892
g304
sS'02188'
p893
g304
sS'02189'
p894
g304
sS'04919'
p895
S'ENG20'
p896
sS'04918'
p897
g896
sS'04917'
p898
g896
sS'04916'
p899
g896
sS'04915'
p900
g896
sS'04914'
p901
g896
sS'04913'
p902
g896
sS'04912'
p903
g896
sS'04911'
p904
g896
sS'04910'
p905
g896
sS'01987'
p906
S'ENG31'
p907
sS'01986'
p908
g907
sS'01985'
p909
g907
sS'01984'
p910
g907
sS'01983'
p911
g907
sS'01982'
p912
g907
sS'01981'
p913
g907
sS'01980'
p914
g907
sS'01989'
p915
g907
sS'01988'
p916
g907
sS'02605'
p917
g481
sS'02604'
p918
g481
sS'02607'
p919
g481
sS'02606'
p920
g481
sS'02601'
p921
g481
sS'02600'
p922
g481
sS'02603'
p923
g481
sS'02602'
p924
g481
sS'05835'
p925
g907
sS'00768'
p926
g353
sS'00769'
p927
g353
sS'00764'
p928
g353
sS'00765'
p929
g353
sS'00766'
p930
g353
sS'00767'
p931
g353
sS'00760'
p932
g353
sS'00761'
p933
g353
sS'00762'
p934
g353
sS'00763'
p935
g353
sS'05833'
p936
g907
sS'02407'
p937
g403
sS'02406'
p938
g403
sS'02405'
p939
g403
sS'02404'
p940
g403
sS'02403'
p941
g403
sS'02402'
p942
g403
sS'02401'
p943
g403
sS'02400'
p944
g403
sS'02409'
p945
g403
sS'02408'
p946
g403
sS'05832'
p947
g907
sS'05217'
p948
g59
sS'04469'
p949
g21
sS'04468'
p950
g21
sS'04467'
p951
g21
sS'04466'
p952
g21
sS'04465'
p953
g21
sS'04464'
p954
g21
sS'04463'
p955
g21
sS'05743'
p956
g45
sS'04461'
p957
g21
sS'04460'
p958
g21
sS'05742'
p959
g45
sS'00379'
p960
g129
sS'00378'
p961
g129
sS'00377'
p962
g129
sS'05745'
p963
g45
sS'00375'
p964
g129
sS'00374'
p965
g129
sS'00373'
p966
g784
sS'00372'
p967
g784
sS'00371'
p968
g784
sS'05212'
p969
g59
sS'05211'
p970
g59
sS'05746'
p971
g45
sS'04610'
p972
g186
sS'04611'
p973
g186
sS'04344'
p974
g189
sS'04345'
p975
g191
sS'04342'
p976
g191
sS'00013'
p977
g59
sS'04343'
p978
g191
sS'04340'
p979
g191
sS'04341'
p980
g191
sS'05846'
p981
g907
sS'05847'
p982
S'ENG32'
p983
sS'05844'
p984
g907
sS'05845'
p985
g983
sS'05842'
p986
g907
sS'05843'
p987
g907
sS'05840'
p988
g907
sS'05841'
p989
g907
sS'05848'
p990
g983
sS'05849'
p991
g983
sS'01176'
p992
g189
sS'01177'
p993
g189
sS'01174'
p994
g189
sS'01175'
p995
g189
sS'01172'
p996
g189
sS'01173'
p997
g189
sS'01170'
p998
g191
sS'01171'
p999
g189
sS'01178'
p1000
g189
sS'01179'
p1001
g189
sS'03448'
p1002
g224
sS'03449'
p1003
g224
sS'03118'
p1004
g78
sS'03119'
p1005
g78
sS'03116'
p1006
g78
sS'03117'
p1007
g78
sS'03446'
p1008
g224
sS'03447'
p1009
g224
sS'03112'
p1010
g78
sS'03113'
p1011
g78
sS'03442'
p1012
g224
sS'03443'
p1013
g224
sS'04537'
p1014
g280
sS'00971'
p1015
g78
sS'00970'
p1016
g78
sS'00973'
p1017
g78
sS'00972'
p1018
g78
sS'00975'
p1019
g78
sS'00974'
p1020
g78
sS'00977'
p1021
g224
sS'00976'
p1022
g224
sS'00979'
p1023
g224
sS'00978'
p1024
g224
sS'02238'
p1025
g304
sS'02239'
p1026
g304
sS'02230'
p1027
g304
sS'02231'
p1028
g304
sS'02232'
p1029
g304
sS'02233'
p1030
g304
sS'02234'
p1031
g304
sS'02235'
p1032
g304
sS'02236'
p1033
g304
sS'02237'
p1034
g304
sS'05619'
p1035
g784
sS'05618'
p1036
g784
sS'05613'
p1037
g784
sS'05612'
p1038
g784
sS'05611'
p1039
g784
sS'05610'
p1040
g784
sS'05617'
p1041
g784
sS'05616'
p1042
g784
sS'05615'
p1043
g784
sS'05614'
p1044
g784
sS'01769'
p1045
g211
sS'01768'
p1046
g211
sS'01763'
p1047
g211
sS'01762'
p1048
g211
sS'01761'
p1049
g211
sS'01760'
p1050
g211
sS'01767'
p1051
g211
sS'01766'
p1052
g211
sS'01765'
p1053
g211
sS'01764'
p1054
g211
sS'03949'
p1055
g74
sS'03948'
p1056
g74
sS'03941'
p1057
g74
sS'03940'
p1058
g74
sS'03943'
p1059
g74
sS'03942'
p1060
g74
sS'03945'
p1061
g74
sS'03944'
p1062
g74
sS'03947'
p1063
g74
sS'03946'
p1064
g74
sS'05477'
p1065
S'ENG18'
p1066
sS'05476'
p1067
g1066
sS'05475'
p1068
S'ENG17'
p1069
sS'05474'
p1070
g1069
sS'05473'
p1071
g1069
sS'05472'
p1072
g1069
sS'05471'
p1073
g1069
sS'05470'
p1074
g1069
sS'05479'
p1075
g115
sS'05478'
p1076
g1066
sS'03611'
p1077
g56
sS'03610'
p1078
g56
sS'00498'
p1079
g59
sS'00499'
p1080
g59
sS'03615'
p1081
g56
sS'03614'
p1082
g56
sS'03617'
p1083
g56
sS'03616'
p1084
g56
sS'03619'
p1085
g56
sS'00493'
p1086
g59
sS'00490'
p1087
g59
sS'00491'
p1088
g59
sS'00496'
p1089
g59
sS'00497'
p1090
g59
sS'00494'
p1091
g59
sS'00495'
p1092
g59
sS'04706'
p1093
g838
sS'04707'
p1094
g838
sS'04704'
p1095
g838
sS'04705'
p1096
g838
sS'04702'
p1097
g838
sS'04703'
p1098
g838
sS'04700'
p1099
g838
sS'04701'
p1100
g838
sS'04708'
p1101
g838
sS'04709'
p1102
g838
sS'00140'
p1103
g481
sS'00141'
p1104
g481
sS'00142'
p1105
g481
sS'00143'
p1106
g481
sS'00144'
p1107
g481
sS'00145'
p1108
g481
sS'00146'
p1109
g481
sS'00147'
p1110
g481
sS'00148'
p1111
g481
sS'00149'
p1112
g481
sS'01969'
p1113
g907
sS'01968'
p1114
g907
sS'01965'
p1115
g907
sS'01964'
p1116
g907
sS'01967'
p1117
g907
sS'01966'
p1118
g907
sS'01961'
p1119
g907
sS'01960'
p1120
g907
sS'01963'
p1121
g907
sS'01962'
p1122
g907
sS'03691'
p1123
g56
sS'03690'
p1124
g56
sS'03693'
p1125
g56
sS'03340'
p1126
g224
sS'03347'
p1127
g224
sS'03694'
p1128
g56
sS'03345'
p1129
g224
sS'03344'
p1130
g224
sS'05088'
p1131
g129
sS'05089'
p1132
g129
sS'02397'
p1133
g403
sS'02396'
p1134
g403
sS'00708'
p1135
g224
sS'00709'
p1136
g224
sS'02393'
p1137
g403
sS'02392'
p1138
g403
sS'02391'
p1139
g403
sS'02390'
p1140
g403
sS'00702'
p1141
g224
sS'00703'
p1142
g224
sS'00700'
p1143
g224
sS'00701'
p1144
g224
sS'00706'
p1145
g224
sS'00707'
p1146
g224
sS'00704'
p1147
g224
sS'00705'
p1148
g224
sS'05288'
p1149
S'ENG40'
p1150
sS'05289'
p1151
g1150
sS'05280'
p1152
g597
sS'05281'
p1153
g597
sS'05282'
p1154
g597
sS'05283'
p1155
g597
sS'05284'
p1156
g597
sS'05285'
p1157
g597
sS'05286'
p1158
g597
sS'05287'
p1159
g1150
sS'01158'
p1160
g191
sS'01159'
p1161
g191
sS'01154'
p1162
g191
sS'01155'
p1163
g191
sS'01156'
p1164
g191
sS'01157'
p1165
g191
sS'01150'
p1166
g191
sS'01151'
p1167
g191
sS'01152'
p1168
g191
sS'01153'
p1169
g191
sS'03134'
p1170
g78
sS'03135'
p1171
g78
sS'03136'
p1172
g78
sS'03137'
p1173
g78
sS'03130'
p1174
g78
sS'03131'
p1175
g78
sS'03132'
p1176
g78
sS'03133'
p1177
g78
sS'03138'
p1178
g78
sS'03139'
p1179
g78
sS'03428'
p1180
g224
sS'03429'
p1181
g224
sS'03422'
p1182
g224
sS'03423'
p1183
g224
sS'03420'
p1184
g224
sS'03421'
p1185
g224
sS'03426'
p1186
g224
sS'03427'
p1187
g224
sS'03424'
p1188
g224
sS'03425'
p1189
g224
sS'00959'
p1190
g78
sS'00958'
p1191
g78
sS'00957'
p1192
g104
sS'00956'
p1193
g104
sS'00955'
p1194
g104
sS'00954'
p1195
g1150
sS'00953'
p1196
g1150
sS'00952'
p1197
g1150
sS'00951'
p1198
g1150
sS'00950'
p1199
g597
sS'05671'
p1200
S'ENG27'
p1201
sS'05670'
p1202
g1201
sS'05673'
p1203
g1201
sS'05672'
p1204
g1201
sS'05675'
p1205
g1201
sS'05674'
p1206
g1201
sS'05677'
p1207
g1201
sS'05676'
p1208
g1201
sS'05679'
p1209
g1201
sS'05678'
p1210
g1201
sS'01701'
p1211
g1201
sS'01700'
p1212
g1201
sS'01703'
p1213
g1201
sS'01702'
p1214
g1201
sS'01705'
p1215
g211
sS'01704'
p1216
g211
sS'01707'
p1217
g211
sS'01706'
p1218
g211
sS'01709'
p1219
g211
sS'01708'
p1220
g211
sS'03967'
p1221
g74
sS'03966'
p1222
g74
sS'03965'
p1223
g74
sS'03964'
p1224
g74
sS'03963'
p1225
g74
sS'03962'
p1226
g74
sS'03961'
p1227
g74
sS'03960'
p1228
g74
sS'03969'
p1229
g74
sS'03968'
p1230
g74
sS'05499'
p1231
g492
sS'05498'
p1232
g492
sS'05495'
p1233
g492
sS'05494'
p1234
g492
sS'05497'
p1235
g492
sS'05496'
p1236
g492
sS'05491'
p1237
g492
sS'05490'
p1238
g492
sS'05493'
p1239
g492
sS'05492'
p1240
g492
sS'02616'
p1241
g481
sS'02617'
p1242
g481
sS'02614'
p1243
g481
sS'02615'
p1244
g481
sS'02612'
p1245
g481
sS'02613'
p1246
g481
sS'03639'
p1247
g56
sS'03638'
p1248
g56
sS'03637'
p1249
g56
sS'03636'
p1250
g56
sS'03635'
p1251
g56
sS'03634'
p1252
g56
sS'03633'
p1253
g56
sS'03632'
p1254
g56
sS'03631'
p1255
g56
sS'03630'
p1256
g56
sS'02948'
p1257
g104
sS'02949'
p1258
g104
sS'02946'
p1259
g104
sS'02947'
p1260
g104
sS'02944'
p1261
g104
sS'02945'
p1262
g104
sS'02942'
p1263
g104
sS'02943'
p1264
g104
sS'02940'
p1265
g104
sS'02941'
p1266
g104
sS'04728'
p1267
g838
sS'04729'
p1268
g838
sS'04724'
p1269
g838
sS'04725'
p1270
g838
sS'04726'
p1271
g838
sS'04727'
p1272
g838
sS'04720'
p1273
g838
sS'04721'
p1274
g838
sS'04722'
p1275
g838
sS'04723'
p1276
g838
sS'03093'
p1277
g78
sS'03092'
p1278
g78
sS'03091'
p1279
g78
sS'03090'
p1280
g78
sS'03097'
p1281
g78
sS'03096'
p1282
g78
sS'03095'
p1283
g78
sS'03094'
p1284
g78
sS'03099'
p1285
g78
sS'03098'
p1286
g78
sS'01949'
p1287
g397
sS'01948'
p1288
g397
sS'01943'
p1289
g397
sS'01942'
p1290
g397
sS'01941'
p1291
g397
sS'01940'
p1292
g397
sS'01947'
p1293
g397
sS'01946'
p1294
g397
sS'01945'
p1295
g397
sS'01944'
p1296
g397
sS'01491'
p1297
g32
sS'01490'
p1298
g32
sS'01493'
p1299
g32
sS'01492'
p1300
g32
sS'01495'
p1301
g32
sS'01494'
p1302
g32
sS'01497'
p1303
g32
sS'01496'
p1304
g32
sS'01499'
p1305
g32
sS'01498'
p1306
g32
sS'00720'
p1307
g56
sS'00721'
p1308
g56
sS'00722'
p1309
g56
sS'00723'
p1310
g56
sS'00724'
p1311
g56
sS'00725'
p1312
g56
sS'00726'
p1313
g56
sS'00727'
p1314
g56
sS'00728'
p1315
g56
sS'00729'
p1316
g56
sS'02379'
p1317
g403
sS'02378'
p1318
g403
sS'02375'
p1319
g403
sS'02374'
p1320
g403
sS'02377'
p1321
g403
sS'02376'
p1322
g403
sS'02371'
p1323
g403
sS'02370'
p1324
g403
sS'02373'
p1325
g403
sS'02372'
p1326
g403
sS'01878'
p1327
g397
sS'05808'
p1328
g397
sS'05809'
p1329
g397
sS'05802'
p1330
g397
sS'05803'
p1331
g397
sS'05800'
p1332
g397
sS'05801'
p1333
g397
sS'05806'
p1334
g397
sS'05807'
p1335
g397
sS'05804'
p1336
g397
sS'05805'
p1337
g397
sS'01138'
p1338
g191
sS'01139'
p1339
g191
sS'01132'
p1340
g191
sS'01133'
p1341
g191
sS'01130'
p1342
g191
sS'01131'
p1343
g191
sS'01136'
p1344
g191
sS'01137'
p1345
g191
sS'01134'
p1346
g191
sS'01135'
p1347
g191
sS'03152'
p1348
g78
sS'03153'
p1349
g78
sS'03150'
p1350
g78
sS'03403'
p1351
g224
sS'03156'
p1352
g78
sS'03157'
p1353
g78
sS'03154'
p1354
g78
sS'03155'
p1355
g78
sS'03408'
p1356
g224
sS'03409'
p1357
g224
sS'03158'
p1358
g78
sS'03159'
p1359
g78
sS'00265'
p1360
g104
sS'00264'
p1361
g104
sS'00267'
p1362
g104
sS'00266'
p1363
g104
sS'00261'
p1364
g104
sS'00260'
p1365
g104
sS'00263'
p1366
g104
sS'00262'
p1367
g104
sS'00269'
p1368
g104
sS'00268'
p1369
g104
sS'05129'
p1370
g211
sS'05128'
p1371
g211
sS'05659'
p1372
g129
sS'05658'
p1373
g129
sS'05657'
p1374
g129
sS'05656'
p1375
g129
sS'05655'
p1376
g129
sS'05654'
p1377
g129
sS'05653'
p1378
g129
sS'05652'
p1379
g129
sS'05651'
p1380
g129
sS'05650'
p1381
g129
sS'01729'
p1382
g211
sS'01728'
p1383
g211
sS'01727'
p1384
g211
sS'01726'
p1385
g211
sS'01725'
p1386
g211
sS'01724'
p1387
g211
sS'01723'
p1388
g211
sS'01722'
p1389
g211
sS'01721'
p1390
g211
sS'01720'
p1391
g211
sS'03989'
p1392
g74
sS'03988'
p1393
g74
sS'03985'
p1394
g74
sS'03984'
p1395
g74
sS'03987'
p1396
g74
sS'03986'
p1397
g74
sS'03981'
p1398
g74
sS'03980'
p1399
g74
sS'03983'
p1400
g74
sS'03982'
p1401
g74
sS'02586'
p1402
g481
sS'02587'
p1403
g481
sS'02584'
p1404
g481
sS'02585'
p1405
g481
sS'02582'
p1406
g481
sS'02583'
p1407
g481
sS'02580'
p1408
g481
sS'02581'
p1409
g481
sS'02588'
p1410
g481
sS'02589'
p1411
g481
sS'04298'
p1412
g191
sS'04299'
p1413
g191
sS'04528'
p1414
g280
sS'04529'
p1415
g280
sS'04294'
p1416
g191
sS'04295'
p1417
g191
sS'04296'
p1418
g191
sS'04297'
p1419
g191
sS'04290'
p1420
g191
sS'04291'
p1421
g191
sS'04292'
p1422
g191
sS'04293'
p1423
g191
sS'00458'
p1424
g983
sS'00459'
p1425
g983
sS'00456'
p1426
g983
sS'00457'
p1427
g983
sS'00454'
p1428
g983
sS'00455'
p1429
g983
sS'00452'
p1430
g983
sS'00453'
p1431
g983
sS'00450'
p1432
g983
sS'00451'
p1433
g983
sS'02638'
p1434
g481
sS'02639'
p1435
g481
sS'02634'
p1436
g481
sS'02635'
p1437
g481
sS'02636'
p1438
g481
sS'02637'
p1439
g481
sS'02630'
p1440
g481
sS'02631'
p1441
g481
sS'02632'
p1442
g481
sS'02633'
p1443
g481
sS'00184'
p1444
g597
sS'00185'
p1445
g597
sS'00186'
p1446
g597
sS'00187'
p1447
g597
sS'00180'
p1448
g597
sS'00181'
p1449
g597
sS'00182'
p1450
g597
sS'00183'
p1451
g597
sS'04742'
p1452
g838
sS'04743'
p1453
g838
sS'04740'
p1454
g838
sS'04741'
p1455
g838
sS'00188'
p1456
g597
sS'00189'
p1457
g597
sS'04744'
p1458
g838
sS'04745'
p1459
g838
sS'02964'
p1460
g104
sS'02965'
p1461
g104
sS'02966'
p1462
g104
sS'02967'
p1463
g104
sS'02960'
p1464
g104
sS'02961'
p1465
g104
sS'02962'
p1466
g104
sS'02963'
p1467
g104
sS'02968'
p1468
g104
sS'02969'
p1469
g104
sS'01921'
p1470
g397
sS'01920'
p1471
g397
sS'01923'
p1472
g397
sS'01922'
p1473
g397
sS'01925'
p1474
g397
sS'01924'
p1475
g397
sS'01927'
p1476
g397
sS'01926'
p1477
g397
sS'01929'
p1478
g397
sS'01928'
p1479
g397
sS'03215'
p1480
g78
sS'03214'
p1481
g78
sS'03217'
p1482
g78
sS'03216'
p1483
g78
sS'03211'
p1484
g78
sS'03210'
p1485
g78
sS'03213'
p1486
g78
sS'03212'
p1487
g78
sS'03219'
p1488
g78
sS'03218'
p1489
g78
sS'02610'
p1490
g481
sS'02611'
p1491
g481
sS'02036'
p1492
g983
sS'02037'
p1493
g983
sS'02034'
p1494
g983
sS'02035'
p1495
g983
sS'02032'
p1496
g983
sS'02033'
p1497
g983
sS'02030'
p1498
g983
sS'02031'
p1499
g983
sS'02038'
p1500
g983
sS'02039'
p1501
g983
sS'02618'
p1502
g481
sS'02619'
p1503
g481
sS'03417'
p1504
g224
sS'03416'
p1505
g224
sS'03415'
p1506
g224
sS'03414'
p1507
g224
sS'03413'
p1508
g224
sS'03412'
p1509
g224
sS'02359'
p1510
g403
sS'02358'
p1511
g403
sS'03411'
p1512
g224
sS'02353'
p1513
g403
sS'02352'
p1514
g403
sS'02351'
p1515
g403
sS'02350'
p1516
g403
sS'02357'
p1517
g403
sS'02356'
p1518
g403
sS'02355'
p1519
g403
sS'02354'
p1520
g403
sS'05200'
p1521
g304
sS'05753'
p1522
g45
sS'05750'
p1523
g45
sS'05751'
p1524
g45
sS'05204'
p1525
g304
sS'05205'
p1526
g304
sS'05206'
p1527
g304
sS'05207'
p1528
g304
sS'05820'
p1529
g907
sS'05821'
p1530
g907
sS'05822'
p1531
g907
sS'05823'
p1532
g907
sS'05824'
p1533
g907
sS'05825'
p1534
g907
sS'05826'
p1535
g907
sS'05827'
p1536
g907
sS'05828'
p1537
g907
sS'05829'
p1538
g907
sS'05358'
p1539
g224
sS'05359'
p1540
g224
sS'01110'
p1541
g191
sS'01111'
p1542
g191
sS'01112'
p1543
g191
sS'01113'
p1544
g191
sS'01114'
p1545
g191
sS'01115'
p1546
g191
sS'01116'
p1547
g191
sS'01117'
p1548
g191
sS'01118'
p1549
g191
sS'01119'
p1550
g191
sS'04199'
p1551
g83
sS'04198'
p1552
g83
sS'04197'
p1553
g83
sS'04196'
p1554
g83
sS'04195'
p1555
g83
sS'04194'
p1556
g83
sS'04193'
p1557
g83
sS'04192'
p1558
g83
sS'04191'
p1559
g83
sS'04190'
p1560
g83
sS'03178'
p1561
g78
sS'03179'
p1562
g78
sS'03170'
p1563
g78
sS'03171'
p1564
g78
sS'03172'
p1565
g78
sS'03173'
p1566
g78
sS'03174'
p1567
g78
sS'03175'
p1568
g78
sS'03176'
p1569
g78
sS'03177'
p1570
g78
sS'00243'
p1571
g1150
sS'00242'
p1572
g1150
sS'00241'
p1573
g1150
sS'00240'
p1574
g1150
sS'00247'
p1575
g104
sS'00246'
p1576
g104
sS'00245'
p1577
g1150
sS'00244'
p1578
g1150
sS'00249'
p1579
g104
sS'00248'
p1580
g104
sS'05109'
p1581
g1201
sS'05108'
p1582
g1201
sS'05103'
p1583
g1201
sS'05102'
p1584
g1201
sS'05101'
p1585
g1201
sS'05100'
p1586
g129
sS'05107'
p1587
g1201
sS'05106'
p1588
g1201
sS'05105'
p1589
g1201
sS'05104'
p1590
g1201
sS'00885'
p1591
g117
sS'00884'
p1592
g117
sS'00887'
p1593
g117
sS'00886'
p1594
g117
sS'00881'
p1595
g276
sS'00880'
p1596
g276
sS'00883'
p1597
g117
sS'00882'
p1598
g276
sS'00889'
p1599
g117
sS'00888'
p1600
g117
sS'04504'
p1601
g21
sS'04505'
p1602
g21
sS'04506'
p1603
g21
sS'04507'
p1604
g21
sS'04500'
p1605
g21
sS'04501'
p1606
g21
sS'04502'
p1607
g21
sS'04503'
p1608
g21
sS'04508'
p1609
g21
sS'04509'
p1610
g21
sS'00474'
p1611
g304
sS'00475'
p1612
g304
sS'00476'
p1613
g304
sS'00477'
p1614
g304
sS'00470'
p1615
g304
sS'00471'
p1616
g304
sS'00472'
p1617
g304
sS'00473'
p1618
g304
sS'00478'
p1619
g59
sS'00479'
p1620
g59
sS'02658'
p1621
g597
sS'02659'
p1622
g597
sS'02652'
p1623
g597
sS'02653'
p1624
g597
sS'02650'
p1625
g597
sS'02651'
p1626
g597
sS'02656'
p1627
g597
sS'02657'
p1628
g597
sS'02654'
p1629
g597
sS'02655'
p1630
g597
sS'04760'
p1631
g838
sS'04761'
p1632
g1069
sS'04762'
p1633
g1069
sS'04763'
p1634
g1069
sS'04764'
p1635
g1069
sS'04765'
p1636
g1069
sS'04766'
p1637
g1069
sS'04767'
p1638
g1069
sS'04768'
p1639
g1069
sS'04769'
p1640
g1069
sS'01305'
p1641
g838
sS'01304'
p1642
g838
sS'01307'
p1643
g838
sS'01306'
p1644
g838
sS'01301'
p1645
g838
sS'01300'
p1646
g838
sS'01303'
p1647
g838
sS'01302'
p1648
g838
sS'02908'
p1649
g104
sS'02909'
p1650
g104
sS'01309'
p1651
g838
sS'01308'
p1652
g838
sS'01909'
p1653
g397
sS'01908'
p1654
g397
sS'01907'
p1655
g397
sS'01906'
p1656
g397
sS'01905'
p1657
g397
sS'01904'
p1658
g397
sS'01903'
p1659
g397
sS'01902'
p1660
g397
sS'01901'
p1661
g397
sS'01900'
p1662
g397
sS'03233'
p1663
g78
sS'03232'
p1664
g78
sS'03231'
p1665
g78
sS'03230'
p1666
g78
sS'03237'
p1667
g78
sS'03236'
p1668
g78
sS'03235'
p1669
g78
sS'03234'
p1670
g78
sS'03238'
p1671
g78
sS'04409'
p1672
g189
sS'04408'
p1673
g189
sS'04407'
p1674
g189
sS'04406'
p1675
g189
sS'02018'
p1676
g907
sS'02019'
p1677
g907
sS'02014'
p1678
g907
sS'02015'
p1679
g907
sS'02016'
p1680
g907
sS'02017'
p1681
g907
sS'02010'
p1682
g907
sS'02011'
p1683
g907
sS'02012'
p1684
g907
sS'02013'
p1685
g907
sS'04889'
p1686
g115
sS'04888'
p1687
g115
sS'04881'
p1688
g115
sS'04880'
p1689
g115
sS'04883'
p1690
g115
sS'04882'
p1691
g115
sS'04885'
p1692
g115
sS'04884'
p1693
g115
sS'04887'
p1694
g115
sS'04886'
p1695
g115
sS'02331'
p1696
g59
sS'02330'
p1697
g59
sS'02333'
p1698
g59
sS'02332'
p1699
g59
sS'02335'
p1700
g59
sS'02334'
p1701
g59
sS'02337'
p1702
g59
sS'02336'
p1703
g59
sS'02339'
p1704
g403
sS'02338'
p1705
g403
sS'03759'
p1706
g56
sS'01268'
p1707
g186
sS'01269'
p1708
g186
sS'01262'
p1709
g276
sS'02489'
p1710
g117
sS'02488'
p1711
g117
sS'02487'
p1712
g117
sS'02486'
p1713
g117
sS'02485'
p1714
g117
sS'02484'
p1715
g117
sS'02483'
p1716
g117
sS'02482'
p1717
g117
sS'02481'
p1718
g117
sS'02480'
p1719
g117
sS'05590'
p1720
g32
sS'05591'
p1721
g32
sS'05592'
p1722
g32
sS'05593'
p1723
g32
sS'05594'
p1724
g32
sS'05595'
p1725
g32
sS'05596'
p1726
g32
sS'05597'
p1727
g32
sS'05598'
p1728
g32
sS'05599'
p1729
g32
sS'01680'
p1730
g1201
sS'01681'
p1731
g1201
sS'01682'
p1732
g1201
sS'01683'
p1733
g1201
sS'01684'
p1734
g1201
sS'01685'
p1735
g1201
sS'01686'
p1736
g1201
sS'01687'
p1737
g1201
sS'01688'
p1738
g1201
sS'01689'
p1739
g1201
sS'03826'
p1740
g74
sS'03827'
p1741
g74
sS'03824'
p1742
g74
sS'03825'
p1743
g74
sS'03822'
p1744
g74
sS'03823'
p1745
g74
sS'03820'
p1746
g74
sS'03821'
p1747
g74
sS'03828'
p1748
g74
sS'03829'
p1749
g74
sS'05378'
p1750
g56
sS'05379'
p1751
g74
sS'05374'
p1752
g56
sS'05375'
p1753
g56
sS'05376'
p1754
g56
sS'05377'
p1755
g56
sS'05370'
p1756
g56
sS'05371'
p1757
g56
sS'05372'
p1758
g56
sS'05373'
p1759
g56
sS'00229'
p1760
g1150
sS'00228'
p1761
g1150
sS'00221'
p1762
g1150
sS'00220'
p1763
g1150
sS'00223'
p1764
g1150
sS'00222'
p1765
g1150
sS'00225'
p1766
g1150
sS'00224'
p1767
g1150
sS'00227'
p1768
g1150
sS'00226'
p1769
g1150
sS'05161'
p1770
g907
sS'05160'
p1771
g907
sS'05163'
p1772
g907
sS'05162'
p1773
g907
sS'05165'
p1774
g907
sS'05164'
p1775
g907
sS'05167'
p1776
g907
sS'05166'
p1777
g907
sS'05169'
p1778
g983
sS'05168'
p1779
g907
sS'04562'
p1780
g280
sS'04563'
p1781
g280
sS'04560'
p1782
g280
sS'04561'
p1783
g280
sS'04566'
p1784
g276
sS'04567'
p1785
g276
sS'04564'
p1786
g280
sS'04565'
p1787
g276
sS'04568'
p1788
g276
sS'04569'
p1789
g276
sS'00412'
p1790
g45
sS'00413'
p1791
g397
sS'00410'
p1792
g45
sS'00411'
p1793
g45
sS'00416'
p1794
g397
sS'00417'
p1795
g397
sS'00414'
p1796
g397
sS'00415'
p1797
g397
sS'00418'
p1798
g397
sS'00419'
p1799
g397
sS'02670'
p1800
g597
sS'02671'
p1801
g597
sS'02672'
p1802
g597
sS'02673'
p1803
g597
sS'02674'
p1804
g597
sS'02675'
p1805
g597
sS'02676'
p1806
g597
sS'02677'
p1807
g597
sS'02678'
p1808
g597
sS'02679'
p1809
g597
sS'04788'
p1810
g1069
sS'04789'
p1811
g1069
sS'04786'
p1812
g1069
sS'04787'
p1813
g1069
sS'04784'
p1814
g1069
sS'04785'
p1815
g1069
sS'04782'
p1816
g1069
sS'04783'
p1817
g1069
sS'04780'
p1818
g1069
sS'04781'
p1819
g1069
sS'05785'
p1820
g397
sS'05784'
p1821
g397
sS'05787'
p1822
g397
sS'05786'
p1823
g397
sS'05781'
p1824
g397
sS'05780'
p1825
g397
sS'05783'
p1826
g397
sS'05782'
p1827
g397
sS'05789'
p1828
g397
sS'05788'
p1829
g397
sS'01095'
p1830
S'ENG07'
p1831
sS'01094'
p1832
g1831
sS'01097'
p1833
g1831
sS'01096'
p1834
g1831
sS'01091'
p1835
g1831
sS'01090'
p1836
g353
sS'01093'
p1837
g1831
sS'01092'
p1838
g1831
sS'01099'
p1839
g83
sS'01098'
p1840
g1831
sS'03783'
p1841
g74
sS'03782'
p1842
g74
sS'03781'
p1843
g74
sS'03780'
p1844
g74
sS'03039'
p1845
g78
sS'03038'
p1846
g78
sS'03785'
p1847
g74
sS'03784'
p1848
g74
sS'03035'
p1849
g78
sS'03034'
p1850
g78
sS'03037'
p1851
g78
sS'03036'
p1852
g78
sS'03031'
p1853
g78
sS'03030'
p1854
g78
sS'03033'
p1855
g78
sS'03032'
p1856
g78
sS'01323'
p1857
g1066
sS'01322'
p1858
g1069
sS'01321'
p1859
g1069
sS'01320'
p1860
g1069
sS'01327'
p1861
g1066
sS'01326'
p1862
g1066
sS'01325'
p1863
g1066
sS'01324'
p1864
g1066
sS'02920'
p1865
g104
sS'02921'
p1866
g104
sS'01329'
p1867
g1066
sS'01328'
p1868
g1066
sS'02924'
p1869
g104
sS'02925'
p1870
g104
sS'02926'
p1871
g104
sS'02927'
p1872
g104
sS'03259'
p1873
g224
sS'03258'
p1874
g224
sS'03251'
p1875
g224
sS'03250'
p1876
g224
sS'03253'
p1877
g224
sS'03252'
p1878
g224
sS'03255'
p1879
g224
sS'03254'
p1880
g224
sS'03257'
p1881
g224
sS'03256'
p1882
g224
sS'02078'
p1883
g983
sS'02079'
p1884
g983
sS'02072'
p1885
g983
sS'02073'
p1886
g983
sS'02070'
p1887
g983
sS'02071'
p1888
g983
sS'02076'
p1889
g983
sS'02077'
p1890
g983
sS'02074'
p1891
g983
sS'02075'
p1892
g983
sS'00782'
p1893
g83
sS'00783'
p1894
g83
sS'00780'
p1895
g83
sS'00781'
p1896
g83
sS'00786'
p1897
g83
sS'00787'
p1898
g83
sS'00784'
p1899
g83
sS'00785'
p1900
g83
sS'00788'
p1901
g83
sS'00789'
p1902
g83
sS'02319'
p1903
g59
sS'02318'
p1904
g59
sS'02317'
p1905
g59
sS'02316'
p1906
g59
sS'02315'
p1907
g59
sS'02314'
p1908
g59
sS'02313'
p1909
g59
sS'02312'
p1910
g59
sS'02311'
p1911
g59
sS'02310'
p1912
g59
sS'01525'
p1913
g784
sS'01524'
p1914
g784
sS'01527'
p1915
g784
sS'01526'
p1916
g784
sS'01521'
p1917
g784
sS'01520'
p1918
g784
sS'01523'
p1919
g784
sS'01522'
p1920
g784
sS'01529'
p1921
g784
sS'01528'
p1922
g784
sS'05578'
p1923
g32
sS'05579'
p1924
g32
sS'05576'
p1925
g32
sS'05577'
p1926
g32
sS'05574'
p1927
g32
sS'05575'
p1928
g32
sS'05572'
p1929
g32
sS'05573'
p1930
g32
sS'05570'
p1931
g32
sS'05571'
p1932
g32
sS'01668'
p1933
g1201
sS'01669'
p1934
g1201
sS'01666'
p1935
g1201
sS'01667'
p1936
g1201
sS'01664'
p1937
g1201
sS'01665'
p1938
g1201
sS'01662'
p1939
g1201
sS'01663'
p1940
g1201
sS'01660'
p1941
g1201
sS'01661'
p1942
g1201
sS'03808'
p1943
g74
sS'03809'
p1944
g74
sS'03804'
p1945
g74
sS'03805'
p1946
g74
sS'03806'
p1947
g74
sS'03807'
p1948
g74
sS'03800'
p1949
g74
sS'03801'
p1950
g74
sS'03802'
p1951
g74
sS'03803'
p1952
g74
sS'05318'
p1953
g104
sS'05319'
p1954
g104
sS'05312'
p1955
g104
sS'05313'
p1956
g104
sS'05310'
p1957
g104
sS'05311'
p1958
g104
sS'05316'
p1959
g104
sS'05317'
p1960
g104
sS'05314'
p1961
g104
sS'05315'
p1962
g104
sS'04045'
p1963
g1831
sS'04044'
p1964
g1831
sS'04047'
p1965
g1831
sS'04046'
p1966
g1831
sS'04041'
p1967
g1831
sS'04040'
p1968
g1831
sS'04043'
p1969
g1831
sS'04042'
p1970
g1831
sS'04049'
p1971
g83
sS'04048'
p1972
g83
sS'00207'
p1973
g597
sS'00206'
p1974
g597
sS'00205'
p1975
g597
sS'00204'
p1976
g597
sS'00203'
p1977
g597
sS'00202'
p1978
g597
sS'00201'
p1979
g597
sS'00200'
p1980
g597
sS'00209'
p1981
g1150
sS'00208'
p1982
g597
sS'05149'
p1983
g397
sS'05148'
p1984
g397
sS'05147'
p1985
g45
sS'05146'
p1986
g45
sS'05145'
p1987
g45
sS'05144'
p1988
g45
sS'05143'
p1989
g45
sS'05142'
p1990
g45
sS'05141'
p1991
g45
sS'05140'
p1992
g45
sS'04548'
p1993
g280
sS'04549'
p1994
g280
sS'04238'
p1995
g191
sS'04239'
p1996
g191
sS'04540'
p1997
g280
sS'04541'
p1998
g280
sS'04234'
p1999
g191
sS'04235'
p2000
g191
sS'04232'
p2001
g191
sS'04233'
p2002
g191
sS'04546'
p2003
g280
sS'04231'
p2004
g191
sS'00438'
p2005
g907
sS'00439'
p2006
g907
sS'00430'
p2007
g397
sS'00431'
p2008
g397
sS'00432'
p2009
g397
sS'00433'
p2010
g397
sS'00434'
p2011
g397
sS'00435'
p2012
g907
sS'00436'
p2013
g907
sS'00437'
p2014
g907
sS'02698'
p2015
g597
sS'02699'
p2016
g597
sS'02696'
p2017
g597
sS'02697'
p2018
g597
sS'02694'
p2019
g597
sS'02695'
p2020
g597
sS'02692'
p2021
g597
sS'02693'
p2022
g597
sS'02690'
p2023
g597
sS'02691'
p2024
g597
sS'04539'
p2025
g280
sS'04538'
p2026
g280
sS'03019'
p2027
g78
sS'03018'
p2028
g78
sS'03013'
p2029
g78
sS'03012'
p2030
g78
sS'03011'
p2031
g78
sS'03010'
p2032
g78
sS'03017'
p2033
g78
sS'03016'
p2034
g78
sS'03015'
p2035
g78
sS'03014'
p2036
g78
sS'04288'
p2037
g191
sS'01349'
p2038
g492
sS'01348'
p2039
g492
sS'01341'
p2040
g492
sS'01340'
p2041
g492
sS'01343'
p2042
g492
sS'01342'
p2043
g492
sS'01345'
p2044
g492
sS'01344'
p2045
g492
sS'01347'
p2046
g492
sS'01346'
p2047
g492
sS'03277'
p2048
g224
sS'03276'
p2049
g224
sS'03275'
p2050
g224
sS'03274'
p2051
g224
sS'03273'
p2052
g224
sS'03272'
p2053
g224
sS'03271'
p2054
g224
sS'03270'
p2055
g224
sS'03279'
p2056
g224
sS'03278'
p2057
g224
sS'02623'
p2058
g481
sS'02622'
p2059
g481
sS'02050'
p2060
g983
sS'02051'
p2061
g983
sS'02052'
p2062
g983
sS'02053'
p2063
g983
sS'02054'
p2064
g983
sS'02055'
p2065
g983
sS'02056'
p2066
g983
sS'02057'
p2067
g983
sS'02058'
p2068
g983
sS'02059'
p2069
g983
sS'02629'
p2070
g481
sS'02628'
p2071
g481
sS'04849'
p2072
g1066
sS'04848'
p2073
g1066
sS'04845'
p2074
g1066
sS'04844'
p2075
g1066
sS'04847'
p2076
g1066
sS'04846'
p2077
g1066
sS'04841'
p2078
g1066
sS'04840'
p2079
g1066
sS'04843'
p2080
g1066
sS'04842'
p2081
g1066
sS'03400'
p2082
g224
sS'03401'
p2083
g224
sS'03402'
p2084
g224
sS'03151'
p2085
g78
sS'03404'
p2086
g224
sS'03405'
p2087
g224
sS'03406'
p2088
g224
sS'03407'
p2089
g224
sS'01503'
p2090
g32
sS'01502'
p2091
g32
sS'01501'
p2092
g32
sS'01500'
p2093
g32
sS'01507'
p2094
g32
sS'01506'
p2095
g32
sS'01505'
p2096
g32
sS'01504'
p2097
g32
sS'01509'
p2098
g32
sS'01508'
p2099
g32
sS'05554'
p2100
g3
sS'05555'
p2101
g3
sS'05556'
p2102
g3
sS'05557'
p2103
g3
sS'05550'
p2104
g3
sS'05551'
p2105
g3
sS'05552'
p2106
g3
sS'05553'
p2107
g3
sS'05558'
p2108
g3
sS'05559'
p2109
g3
sS'01644'
p2110
g1201
sS'01645'
p2111
g1201
sS'01646'
p2112
g1201
sS'01647'
p2113
g1201
sS'01640'
p2114
g1201
sS'01641'
p2115
g1201
sS'01642'
p2116
g1201
sS'01643'
p2117
g1201
sS'05082'
p2118
g129
sS'05083'
p2119
g129
sS'05080'
p2120
g129
sS'05081'
p2121
g129
sS'01648'
p2122
g1201
sS'05087'
p2123
g129
sS'05084'
p2124
g129
sS'05085'
p2125
g129
sS'03868'
p2126
g74
sS'03869'
p2127
g74
sS'03862'
p2128
g74
sS'03863'
p2129
g74
sS'03860'
p2130
g74
sS'03861'
p2131
g74
sS'03866'
p2132
g74
sS'03867'
p2133
g74
sS'03864'
p2134
g74
sS'03865'
p2135
g74
sS'05330'
p2136
g78
sS'05331'
p2137
g78
sS'05332'
p2138
g78
sS'05333'
p2139
g78
sS'05334'
p2140
g78
sS'05335'
p2141
g78
sS'05336'
p2142
g78
sS'05337'
p2143
g78
sS'05338'
p2144
g78
sS'05339'
p2145
g78
sS'04687'
p2146
g235
sS'04686'
p2147
g235
sS'04685'
p2148
g235
sS'04684'
p2149
g235
sS'04683'
p2150
g235
sS'04682'
p2151
g235
sS'04681'
p2152
g235
sS'04680'
p2153
g235
sS'04689'
p2154
g235
sS'04688'
p2155
g235
sS'00597'
p2156
g597
sS'00596'
p2157
g597
sS'00595'
p2158
g597
sS'00594'
p2159
g597
sS'00593'
p2160
g597
sS'00592'
p2161
g597
sS'00591'
p2162
g481
sS'00590'
p2163
g481
sS'00599'
p2164
g597
sS'00598'
p2165
g597
sS'02735'
p2166
g1150
sS'02734'
p2167
g1150
sS'02737'
p2168
g1150
sS'02736'
p2169
g1150
sS'02731'
p2170
g1150
sS'02730'
p2171
g1150
sS'02733'
p2172
g1150
sS'02732'
p2173
g1150
sS'02739'
p2174
g1150
sS'02738'
p2175
g1150
sS'04063'
p2176
g83
sS'04062'
p2177
g83
sS'04061'
p2178
g83
sS'04060'
p2179
g83
sS'04067'
p2180
g83
sS'04066'
p2181
g83
sS'04065'
p2182
g83
sS'04064'
p2183
g83
sS'04069'
p2184
g83
sS'04068'
p2185
g83
sS'03488'
p2186
g224
sS'03489'
p2187
g224
sS'03480'
p2188
g224
sS'03481'
p2189
g224
sS'03482'
p2190
g224
sS'03483'
p2191
g224
sS'03484'
p2192
g224
sS'03485'
p2193
g224
sS'03486'
p2194
g224
sS'03487'
p2195
g224
sS'02508'
p2196
g117
sS'02509'
p2197
g117
sS'02506'
p2198
g117
sS'02507'
p2199
g117
sS'02504'
p2200
g117
sS'02505'
p2201
g117
sS'02502'
p2202
g117
sS'02503'
p2203
g117
sS'02500'
p2204
g117
sS'02501'
p2205
g117
sS'01789'
p2206
g45
sS'01788'
p2207
g45
sS'01785'
p2208
g45
sS'01784'
p2209
g45
sS'04214'
p2210
g191
sS'04215'
p2211
g191
sS'04216'
p2212
g191
sS'04217'
p2213
g191
sS'04210'
p2214
g191
sS'04211'
p2215
g191
sS'04212'
p2216
g191
sS'04213'
p2217
g191
sS'04218'
p2218
g191
sS'04219'
p2219
g191
sS'03071'
p2220
g78
sS'03070'
p2221
g78
sS'03073'
p2222
g78
sS'03072'
p2223
g78
sS'03075'
p2224
g78
sS'03074'
p2225
g78
sS'03077'
p2226
g78
sS'03076'
p2227
g78
sS'03079'
p2228
g78
sS'03078'
p2229
g78
sS'01367'
p2230
g492
sS'01366'
p2231
g492
sS'01365'
p2232
g492
sS'01364'
p2233
g492
sS'01363'
p2234
g492
sS'01362'
p2235
g492
sS'01361'
p2236
g492
sS'01360'
p2237
g492
sS'01369'
p2238
g492
sS'01368'
p2239
g492
sS'03299'
p2240
g224
sS'03298'
p2241
g224
sS'03295'
p2242
g224
sS'03294'
p2243
g224
sS'03297'
p2244
g224
sS'03296'
p2245
g224
sS'03291'
p2246
g224
sS'03290'
p2247
g224
sS'03293'
p2248
g224
sS'03292'
p2249
g224
sS'04144'
p2250
g83
sS'04145'
p2251
g83
sS'04146'
p2252
g83
sS'04147'
p2253
g83
sS'04140'
p2254
g83
sS'04413'
p2255
g189
sS'00016'
p2256
g59
sS'00017'
p2257
g59
sS'00014'
p2258
g59
sS'00015'
p2259
g59
sS'00012'
p2260
g59
sS'04410'
p2261
g189
sS'00010'
p2262
g304
sS'00011'
p2263
g304
sS'04143'
p2264
g83
sS'00018'
p2265
g59
sS'00019'
p2266
g59
sS'04869'
p2267
g115
sS'04868'
p2268
g115
sS'04863'
p2269
g1066
sS'04862'
p2270
g1066
sS'04861'
p2271
g1066
sS'04860'
p2272
g1066
sS'04867'
p2273
g115
sS'04866'
p2274
g115
sS'04865'
p2275
g115
sS'04864'
p2276
g1066
sS'01569'
p2277
g784
sS'01568'
p2278
g784
sS'01561'
p2279
g784
sS'01560'
p2280
g784
sS'01563'
p2281
g784
sS'01562'
p2282
g784
sS'01565'
p2283
g784
sS'01564'
p2284
g784
sS'01567'
p2285
g784
sS'01566'
p2286
g784
sS'05532'
p2287
g3
sS'05533'
p2288
g3
sS'05530'
p2289
g3
sS'05531'
p2290
g3
sS'05536'
p2291
g3
sS'05537'
p2292
g3
sS'05534'
p2293
g3
sS'05535'
p2294
g3
sS'05538'
p2295
g3
sS'05539'
p2296
g3
sS'01622'
p2297
g1201
sS'01623'
p2298
g1201
sS'01620'
p2299
g1201
sS'01621'
p2300
g1201
sS'01626'
p2301
g1201
sS'01627'
p2302
g1201
sS'01624'
p2303
g1201
sS'01625'
p2304
g1201
sS'01628'
p2305
g1201
sS'01629'
p2306
g1201
sS'03840'
p2307
g74
sS'03841'
p2308
g74
sS'03842'
p2309
g74
sS'03843'
p2310
g74
sS'03844'
p2311
g74
sS'03845'
p2312
g74
sS'03846'
p2313
g74
sS'03847'
p2314
g74
sS'03848'
p2315
g74
sS'03849'
p2316
g74
sS'01198'
p2317
g189
sS'01199'
p2318
g189
sS'01190'
p2319
g189
sS'01191'
p2320
g189
sS'01192'
p2321
g189
sS'01193'
p2322
g189
sS'01194'
p2323
g189
sS'01195'
p2324
g189
sS'01196'
p2325
g189
sS'01197'
p2326
g189
sS'04669'
p2327
g235
sS'04668'
p2328
g235
sS'04665'
p2329
g235
sS'04664'
p2330
g235
sS'04667'
p2331
g235
sS'04666'
p2332
g235
sS'04661'
p2333
g235
sS'04660'
p2334
g235
sS'04663'
p2335
g235
sS'04662'
p2336
g235
sS'00579'
p2337
g481
sS'00578'
p2338
g117
sS'00575'
p2339
g117
sS'00574'
p2340
g117
sS'00577'
p2341
g117
sS'00576'
p2342
g117
sS'00571'
p2343
g117
sS'00570'
p2344
g117
sS'00573'
p2345
g117
sS'00572'
p2346
g117
sS'02713'
p2347
g1150
sS'02712'
p2348
g1150
sS'02711'
p2349
g597
sS'02710'
p2350
g1150
sS'02717'
p2351
g1150
sS'02716'
p2352
g1150
sS'02715'
p2353
g1150
sS'02714'
p2354
g1150
sS'02719'
p2355
g1150
sS'02718'
p2356
g1150
sS'04009'
p2357
g353
sS'04008'
p2358
g353
sS'04001'
p2359
g353
sS'04000'
p2360
g353
sS'04003'
p2361
g353
sS'04002'
p2362
g353
sS'04005'
p2363
g353
sS'04004'
p2364
g353
sS'04007'
p2365
g353
sS'04006'
p2366
g353
sS'02026'
p2367
g907
sS'02155'
p2368
g304
sS'02154'
p2369
g304
sS'02157'
p2370
g304
sS'02156'
p2371
g304
sS'02151'
p2372
g304
sS'02150'
p2373
g304
sS'02153'
p2374
g304
sS'02152'
p2375
g304
sS'02159'
p2376
g304
sS'02158'
p2377
g304
sS'00809'
p2378
g191
sS'00808'
p2379
g191
sS'00805'
p2380
g191
sS'00804'
p2381
g191
sS'00807'
p2382
g191
sS'00806'
p2383
g191
sS'00801'
p2384
g83
sS'00800'
p2385
g83
sS'00803'
p2386
g191
sS'00802'
p2387
g191
sS'02524'
p2388
g117
sS'02525'
p2389
g117
sS'02526'
p2390
g117
sS'02527'
p2391
g117
sS'02520'
p2392
g117
sS'02521'
p2393
g117
sS'02522'
p2394
g117
sS'02523'
p2395
g117
sS'04236'
p2396
g191
sS'02528'
p2397
g117
sS'02529'
p2398
g117
sS'04237'
p2399
g191
sS'05275'
p2400
g481
sS'05274'
p2401
g481
sS'05277'
p2402
g481
sS'05276'
p2403
g481
sS'05271'
p2404
g481
sS'05270'
p2405
g481
sS'05273'
p2406
g481
sS'05272'
p2407
g481
sS'05279'
p2408
g597
sS'05278'
p2409
g481
sS'04272'
p2410
g191
sS'04273'
p2411
g191
sS'04270'
p2412
g191
sS'04271'
p2413
g191
sS'04276'
p2414
g191
sS'04277'
p2415
g191
sS'04274'
p2416
g191
sS'04275'
p2417
g191
sS'04278'
p2418
g191
sS'04279'
p2419
g191
sS'03729'
p2420
g56
sS'03728'
p2421
g56
sS'03059'
p2422
g78
sS'03058'
p2423
g78
sS'03057'
p2424
g78
sS'03056'
p2425
g78
sS'03055'
p2426
g78
sS'03726'
p2427
g56
sS'03053'
p2428
g78
sS'03720'
p2429
g56
sS'03051'
p2430
g78
sS'03050'
p2431
g78
sS'01389'
p2432
g3
sS'01388'
p2433
g3
sS'01385'
p2434
g3
sS'01384'
p2435
g3
sS'01387'
p2436
g3
sS'01386'
p2437
g3
sS'01381'
p2438
g492
sS'01380'
p2439
g492
sS'01383'
p2440
g492
sS'01382'
p2441
g492
sS'04496'
p2442
g21
sS'04497'
p2443
g21
sS'04494'
p2444
g21
sS'04495'
p2445
g21
sS'04492'
p2446
g21
sS'04493'
p2447
g21
sS'04490'
p2448
g21
sS'04491'
p2449
g21
sS'04498'
p2450
g21
sS'04499'
p2451
g21
sS'00386'
p2452
g1201
sS'00387'
p2453
g1201
sS'00384'
p2454
g1201
sS'00385'
p2455
g1201
sS'00382'
p2456
g1201
sS'00383'
p2457
g1201
sS'00380'
p2458
g1201
sS'00381'
p2459
g1201
sS'00388'
p2460
g211
sS'00389'
p2461
g211
sS'02898'
p2462
g104
sS'02899'
p2463
g104
sS'02894'
p2464
g104
sS'02895'
p2465
g104
sS'02896'
p2466
g104
sS'02897'
p2467
g104
sS'02890'
p2468
g104
sS'02891'
p2469
g104
sS'02892'
p2470
g104
sS'02893'
p2471
g104
sS'00038'
p2472
g59
sS'00039'
p2473
g59
sS'00034'
p2474
g59
sS'00035'
p2475
g59
sS'00036'
p2476
g59
sS'00037'
p2477
g59
sS'00030'
p2478
g59
sS'00031'
p2479
g59
sS'00032'
p2480
g59
sS'00033'
p2481
g59
sS'02094'
p2482
g7
sS'02095'
p2483
g7
sS'02096'
p2484
g7
sS'02097'
p2485
g7
sS'02090'
p2486
g7
sS'02091'
p2487
g7
sS'02092'
p2488
g7
sS'02093'
p2489
g7
sS'02098'
p2490
g7
sS'02099'
p2491
g7
sS'04801'
p2492
g1069
sS'04800'
p2493
g1069
sS'04803'
p2494
g1069
sS'04802'
p2495
g1069
sS'04805'
p2496
g1069
sS'04804'
p2497
g1069
sS'04807'
p2498
g1069
sS'04806'
p2499
g1069
sS'04809'
p2500
g1069
sS'04808'
p2501
g1069
sS'05125'
p2502
g211
sS'05124'
p2503
g211
sS'05127'
p2504
g211
sS'05126'
p2505
g211
sS'05121'
p2506
g211
sS'05120'
p2507
g211
sS'01547'
p2508
g784
sS'01546'
p2509
g784
sS'01545'
p2510
g784
sS'01544'
p2511
g784
sS'01543'
p2512
g784
sS'01542'
p2513
g784
sS'01813'
p2514
g45
sS'01812'
p2515
g45
sS'05122'
p2516
g211
sS'01819'
p2517
g45
sS'01818'
p2518
g45
sS'01549'
p2519
g784
sS'01548'
p2520
g784
sS'05518'
p2521
g3
sS'05519'
p2522
g3
sS'05048'
p2523
g784
sS'05049'
p2524
g784
sS'05046'
p2525
g784
sS'05047'
p2526
g784
sS'05044'
p2527
g784
sS'05045'
p2528
g784
sS'05042'
p2529
g784
sS'05043'
p2530
g784
sS'05516'
p2531
g3
sS'05517'
p2532
g3
sS'01608'
p2533
g129
sS'01609'
p2534
g129
sS'01600'
p2535
g129
sS'01601'
p2536
g129
sS'01602'
p2537
g129
sS'01603'
p2538
g129
sS'01604'
p2539
g129
sS'01605'
p2540
g129
sS'01606'
p2541
g129
sS'01607'
p2542
g129
sS'00636'
p2543
g1150
sS'00637'
p2544
g104
sS'00634'
p2545
g1150
sS'00635'
p2546
g1150
sS'00632'
p2547
g1150
sS'00633'
p2548
g1150
sS'00630'
p2549
g1150
sS'00631'
p2550
g1150
sS'00638'
p2551
g104
sS'00639'
p2552
g104
sS'04399'
p2553
g189
sS'04398'
p2554
g189
sS'04649'
p2555
g235
sS'04648'
p2556
g235
sS'04643'
p2557
g186
sS'04642'
p2558
g186
sS'04641'
p2559
g186
sS'04640'
p2560
g186
sS'04395'
p2561
g189
sS'04394'
p2562
g189
sS'04397'
p2563
g189
sS'04396'
p2564
g189
sS'00559'
p2565
g117
sS'00558'
p2566
g117
sS'00553'
p2567
g117
sS'00552'
p2568
g117
sS'00551'
p2569
g117
sS'00550'
p2570
g117
sS'00557'
p2571
g117
sS'00556'
p2572
g117
sS'00555'
p2573
g117
sS'00554'
p2574
g117
sS'02779'
p2575
g104
sS'02778'
p2576
g104
sS'02771'
p2577
g104
sS'02770'
p2578
g104
sS'02773'
p2579
g104
sS'02772'
p2580
g104
sS'02775'
p2581
g104
sS'02774'
p2582
g104
sS'02777'
p2583
g104
sS'02776'
p2584
g104
sS'04027'
p2585
g353
sS'04026'
p2586
g353
sS'04025'
p2587
g353
sS'04024'
p2588
g353
sS'04023'
p2589
g353
sS'04022'
p2590
g353
sS'04021'
p2591
g353
sS'04020'
p2592
g353
sS'04029'
p2593
g353
sS'04028'
p2594
g353
sS'03737'
p2595
g56
sS'03556'
p2596
g56
sS'03557'
p2597
g56
sS'03554'
p2598
g56
sS'03555'
p2599
g56
sS'03552'
p2600
g56
sS'03553'
p2601
g56
sS'03550'
p2602
g56
sS'03551'
p2603
g56
sS'03558'
p2604
g56
sS'03559'
p2605
g56
sS'04482'
p2606
g21
sS'03731'
p2607
g56
sS'00390'
p2608
g211
sS'02173'
p2609
g304
sS'02172'
p2610
g304
sS'02171'
p2611
g304
sS'02170'
p2612
g304
sS'02177'
p2613
g304
sS'02176'
p2614
g304
sS'02175'
p2615
g304
sS'02174'
p2616
g304
sS'02179'
p2617
g304
sS'02178'
p2618
g304
sS'00829'
p2619
g191
sS'00828'
p2620
g191
sS'00823'
p2621
g191
sS'00822'
p2622
g191
sS'00821'
p2623
g191
sS'00820'
p2624
g191
sS'00827'
p2625
g191
sS'00826'
p2626
g191
sS'00825'
p2627
g191
sS'00824'
p2628
g191
sS'02542'
p2629
g117
sS'02543'
p2630
g117
sS'02540'
p2631
g117
sS'02541'
p2632
g117
sS'02546'
p2633
g117
sS'02547'
p2634
g117
sS'02544'
p2635
g117
sS'02545'
p2636
g117
sS'02548'
p2637
g117
sS'02549'
p2638
g117
sS'05253'
p2639
g117
sS'05252'
p2640
g117
sS'05251'
p2641
g403
sS'05250'
p2642
g403
sS'05709'
p2643
g211
sS'05708'
p2644
g211
sS'05255'
p2645
g117
sS'05254'
p2646
g117
sS'05705'
p2647
g211
sS'05704'
p2648
g211
sS'05707'
p2649
g211
sS'05258'
p2650
g117
sS'05701'
p2651
g211
sS'05700'
p2652
g211
sS'05703'
p2653
g211
sS'05702'
p2654
g211
sS'05837'
p2655
g907
sS'01019'
p2656
g56
sS'01018'
p2657
g56
sS'05836'
p2658
g907
sS'01015'
p2659
g56
sS'01014'
p2660
g56
sS'01017'
p2661
g56
sS'01016'
p2662
g56
sS'01011'
p2663
g56
sS'01010'
p2664
g56
sS'01013'
p2665
g56
sS'01012'
p2666
g56
sS'04258'
p2667
g191
sS'04259'
p2668
g191
sS'05834'
p2669
g907
sS'04250'
p2670
g191
sS'04251'
p2671
g191
sS'04252'
p2672
g191
sS'04253'
p2673
g191
sS'04254'
p2674
g191
sS'04255'
p2675
g191
sS'04256'
p2676
g191
sS'04257'
p2677
g191
sS'03709'
p2678
g56
sS'03708'
p2679
g56
sS'05831'
p2680
g907
sS'03703'
p2681
g56
sS'03702'
p2682
g56
sS'03701'
p2683
g56
sS'05830'
p2684
g907
sS'03707'
p2685
g56
sS'03706'
p2686
g56
sS'03705'
p2687
g56
sS'03704'
p2688
g56
sS'04526'
p2689
g280
sS'04527'
p2690
g280
sS'04524'
p2691
g280
sS'04525'
p2692
g280
sS'04522'
p2693
g280
sS'04523'
p2694
g280
sS'04520'
p2695
g21
sS'04521'
p2696
g21
sS'00058'
p2697
g403
sS'00059'
p2698
g403
sS'00052'
p2699
g403
sS'00053'
p2700
g403
sS'00050'
p2701
g403
sS'00051'
p2702
g403
sS'00056'
p2703
g403
sS'00057'
p2704
g403
sS'00054'
p2705
g403
sS'00055'
p2706
g403
sS'04829'
p2707
g1066
sS'04828'
p2708
g1066
sS'04827'
p2709
g1066
sS'04826'
p2710
g1066
sS'04825'
p2711
g1066
sS'04824'
p2712
g1066
sS'04823'
p2713
g1066
sS'04822'
p2714
g1066
sS'04821'
p2715
g1066
sS'04820'
p2716
g1066
sS'04876'
p2717
g115
sS'04877'
p2718
g115
sS'04878'
p2719
g115
sS'04879'
p2720
g115
sS'01833'
p2721
g45
sS'01832'
p2722
g45
sS'01831'
p2723
g45
sS'01830'
p2724
g45
sS'01837'
p2725
g45
sS'01836'
p2726
g45
sS'01835'
p2727
g45
sS'01834'
p2728
g45
sS'01839'
p2729
g45
sS'01838'
p2730
g45
sS'01649'
p2731
g1201
sS'04748'
p2732
g838
sS'04749'
p2733
g838
sS'03884'
p2734
g74
sS'03885'
p2735
g74
sS'03886'
p2736
g74
sS'03887'
p2737
g74
sS'03880'
p2738
g74
sS'03881'
p2739
g74
sS'03882'
p2740
g74
sS'03883'
p2741
g74
sS'03657'
p2742
g56
sS'03888'
p2743
g74
sS'03889'
p2744
g74
sS'04746'
p2745
g838
sS'04747'
p2746
g838
sS'03656'
p2747
g56
sS'00618'
p2748
g597
sS'00619'
p2749
g597
sS'00614'
p2750
g597
sS'00615'
p2751
g597
sS'00616'
p2752
g597
sS'00617'
p2753
g597
sS'00610'
p2754
g597
sS'00611'
p2755
g597
sS'00612'
p2756
g597
sS'00613'
p2757
g597
sS'05064'
p2758
g784
sS'05065'
p2759
g784
sS'05066'
p2760
g784
sS'05067'
p2761
g784
sS'05060'
p2762
g784
sS'05061'
p2763
g784
sS'05062'
p2764
g784
sS'05063'
p2765
g784
sS'02281'
p2766
g59
sS'02280'
p2767
g59
sS'02283'
p2768
g59
sS'02282'
p2769
g59
sS'05068'
p2770
g784
sS'02284'
p2771
g59
sS'02287'
p2772
g59
sS'02286'
p2773
g59
sS'04621'
p2774
g186
sS'04620'
p2775
g186
sS'04623'
p2776
g186
sS'04622'
p2777
g186
sS'04625'
p2778
g186
sS'04624'
p2779
g186
sS'04627'
p2780
g186
sS'04626'
p2781
g186
sS'04629'
p2782
g186
sS'04628'
p2783
g186
sS'03653'
p2784
g56
sS'00530'
p2785
g403
sS'00533'
p2786
g403
sS'00532'
p2787
g403
sS'00535'
p2788
g403
sS'00534'
p2789
g403
sS'00537'
p2790
g403
sS'00536'
p2791
g403
sS'00539'
p2792
g403
sS'00538'
p2793
g403
sS'02757'
p2794
g104
sS'02756'
p2795
g104
sS'02755'
p2796
g104
sS'02754'
p2797
g104
sS'02753'
p2798
g104
sS'02752'
p2799
g104
sS'02751'
p2800
g104
sS'02750'
p2801
g104
sS'02759'
p2802
g104
sS'02758'
p2803
g104
sS'05392'
p2804
g1831
sS'05393'
p2805
g1831
sS'05390'
p2806
g353
sS'05391'
p2807
g353
sS'05396'
p2808
g1831
sS'05397'
p2809
g1831
sS'05394'
p2810
g1831
sS'05395'
p2811
g1831
sS'05398'
p2812
g83
sS'05399'
p2813
g1831
sS'00289'
p2814
g78
sS'00288'
p2815
g78
sS'00287'
p2816
g78
sS'00286'
p2817
g78
sS'00285'
p2818
g78
sS'00284'
p2819
g78
sS'00283'
p2820
g78
sS'00282'
p2821
g78
sS'00281'
p2822
g78
sS'00280'
p2823
g78
sS'03390'
p2824
g224
sS'03391'
p2825
g224
sS'03392'
p2826
g224
sS'03393'
p2827
g224
sS'03394'
p2828
g224
sS'03395'
p2829
g224
sS'03396'
p2830
g224
sS'03397'
p2831
g224
sS'03398'
p2832
g224
sS'03399'
p2833
g224
sS'01226'
p2834
g21
sS'01227'
p2835
g21
sS'01224'
p2836
g21
sS'01225'
p2837
g21
sS'01222'
p2838
g21
sS'01223'
p2839
g21
sS'01220'
p2840
g21
sS'01221'
p2841
g21
sS'01228'
p2842
g21
sS'01229'
p2843
g21
sS'03578'
p2844
g56
sS'03579'
p2845
g56
sS'03574'
p2846
g56
sS'03575'
p2847
g56
sS'03576'
p2848
g56
sS'03577'
p2849
g56
sS'03570'
p2850
g56
sS'03571'
p2851
g56
sS'03572'
p2852
g56
sS'03573'
p2853
g56
sS'02119'
p2854
g7
sS'02118'
p2855
g7
sS'02111'
p2856
g7
sS'02110'
p2857
g7
sS'02113'
p2858
g7
sS'02112'
p2859
g7
sS'02115'
p2860
g7
sS'02114'
p2861
g7
sS'02117'
p2862
g7
sS'02116'
p2863
g7
sS'00841'
p2864
g189
sS'00840'
p2865
g189
sS'00843'
p2866
g189
sS'00842'
p2867
g189
sS'00845'
p2868
g189
sS'00844'
p2869
g189
sS'00847'
p2870
g189
sS'00846'
p2871
g189
sS'00849'
p2872
g21
sS'00848'
p2873
g189
sS'02568'
p2874
g481
sS'02569'
p2875
g481
sS'02560'
p2876
g481
sS'02561'
p2877
g481
sS'02562'
p2878
g481
sS'02563'
p2879
g481
sS'02564'
p2880
g481
sS'02565'
p2881
g481
sS'02566'
p2882
g481
sS'02567'
p2883
g481
sS'01798'
p2884
g45
sS'04312'
p2885
g191
sS'05239'
p2886
g403
sS'01792'
p2887
g45
sS'05729'
p2888
g45
sS'05728'
p2889
g45
sS'05643'
p2890
g129
sS'04318'
p2891
g191
sS'05723'
p2892
g211
sS'05722'
p2893
g211
sS'05721'
p2894
g211
sS'05720'
p2895
g211
sS'05727'
p2896
g45
sS'05726'
p2897
g211
sS'05725'
p2898
g211
sS'05724'
p2899
g211
sS'01039'
p2900
g56
sS'01038'
p2901
g56
sS'01033'
p2902
g56
sS'01032'
p2903
g56
sS'01031'
p2904
g56
sS'01030'
p2905
g56
sS'01037'
p2906
g56
sS'01036'
p2907
g56
sS'01035'
p2908
g56
sS'01034'
p2909
g56
sS'05231'
p2910
g59
sS'05230'
p2911
g59
sS'03761'
p2912
g56
sS'03760'
p2913
g56
sS'03763'
p2914
g56
sS'03762'
p2915
g56
sS'03765'
p2916
g74
sS'03764'
p2917
g56
sS'03767'
p2918
g74
sS'03766'
p2919
g74
sS'03769'
p2920
g74
sS'03768'
p2921
g74
sS'04131'
p2922
g83
sS'04130'
p2923
g83
sS'04133'
p2924
g83
sS'00070'
p2925
g117
sS'00071'
p2926
g117
sS'00072'
p2927
g117
sS'04420'
p2928
g189
sS'00074'
p2929
g117
sS'00075'
p2930
g117
sS'00076'
p2931
g117
sS'00077'
p2932
g117
sS'00078'
p2933
g117
sS'04135'
p2934
g83
sS'04134'
p2935
g83
sS'05507'
p2936
g492
sS'04425'
p2937
g189
sS'05506'
p2938
g492
sS'04424'
p2939
g189
sS'05505'
p2940
g492
sS'05504'
p2941
g492
sS'05503'
p2942
g492
sS'05502'
p2943
g492
sS'05501'
p2944
g492
sS'05052'
p2945
g784
sS'03185'
p2946
g78
sS'03184'
p2947
g78
sS'03187'
p2948
g78
sS'03186'
p2949
g78
sS'03181'
p2950
g78
sS'03180'
p2951
g78
sS'03183'
p2952
g78
sS'03182'
p2953
g78
sS'03189'
p2954
g78
sS'03188'
p2955
g78
sS'01859'
p2956
g45
sS'01858'
p2957
g45
sS'01589'
p2958
g129
sS'01588'
p2959
g129
sS'01851'
p2960
g45
sS'01850'
p2961
g45
sS'01853'
p2962
g45
sS'01852'
p2963
g45
sS'01855'
p2964
g45
sS'01854'
p2965
g45
sS'01857'
p2966
g45
sS'01856'
p2967
g45
sS'00988'
p2968
g224
sS'00989'
p2969
g224
sS'00984'
p2970
g224
sS'00985'
p2971
g224
sS'00986'
p2972
g224
sS'00987'
p2973
g224
sS'00980'
p2974
g224
sS'00981'
p2975
g224
sS'00982'
p2976
g224
sS'00983'
p2977
g224
sS'00678'
p2978
g78
sS'00679'
p2979
g78
sS'00672'
p2980
g78
sS'00673'
p2981
g78
sS'00670'
p2982
g78
sS'00671'
p2983
g78
sS'00676'
p2984
g78
sS'00677'
p2985
g78
sS'00674'
p2986
g78
sS'00675'
p2987
g78
sS'05002'
p2988
g3
sS'05003'
p2989
g3
sS'05000'
p2990
g3
sS'05001'
p2991
g3
sS'05006'
p2992
g32
sS'05007'
p2993
g32
sS'05004'
p2994
g3
sS'05005'
p2995
g32
sS'05008'
p2996
g32
sS'05009'
p2997
g32
sS'04359'
p2998
g189
sS'04358'
p2999
g189
sS'04609'
p3000
g186
sS'04608'
p3001
g276
sS'04355'
p3002
g189
sS'04354'
p3003
g189
sS'04357'
p3004
g189
sS'04356'
p3005
g189
sS'04351'
p3006
g189
sS'04350'
p3007
g189
sS'04353'
p3008
g189
sS'04352'
p3009
g189
sS'00519'
p3010
g403
sS'00518'
p3011
g403
sS'00517'
p3012
g403
sS'00516'
p3013
g59
sS'00515'
p3014
g59
sS'00514'
p3015
g59
sS'00513'
p3016
g59
sS'00512'
p3017
g59
sS'00511'
p3018
g59
sS'00510'
p3019
g59
sS'03378'
p3020
g224
sS'03379'
p3021
g224
sS'03376'
p3022
g224
sS'03377'
p3023
g224
sS'03374'
p3024
g224
sS'03375'
p3025
g224
sS'03372'
p3026
g224
sS'03373'
p3027
g224
sS'03370'
p3028
g224
sS'03371'
p3029
g224
sS'01208'
p3030
g189
sS'01209'
p3031
g189
sS'01204'
p3032
g189
sS'01205'
p3033
g189
sS'01206'
p3034
g189
sS'01207'
p3035
g189
sS'01200'
p3036
g189
sS'01201'
p3037
g189
sS'01202'
p3038
g189
sS'01203'
p3039
g189
sS'03518'
p3040
g56
sS'03519'
p3041
g56
sS'03512'
p3042
g56
sS'03513'
p3043
g56
sS'03510'
p3044
g56
sS'03511'
p3045
g56
sS'03516'
p3046
g56
sS'03517'
p3047
g56
sS'03514'
p3048
g56
sS'03515'
p3049
g56
sS'02137'
p3050
g304
sS'02136'
p3051
g304
sS'02135'
p3052
g304
sS'02134'
p3053
g304
sS'02133'
p3054
g304
sS'02132'
p3055
g304
sS'02131'
p3056
g304
sS'02130'
p3057
g7
sS'02139'
p3058
g304
sS'02138'
p3059
g304
sS'04980'
p3060
g3
sS'04981'
p3061
g3
sS'04982'
p3062
g3
sS'04983'
p3063
g3
sS'04984'
p3064
g3
sS'04985'
p3065
g3
sS'04986'
p3066
g3
sS'04987'
p3067
g3
sS'04988'
p3068
g3
sS'04989'
p3069
g3
sS'00869'
p3070
g21
sS'00868'
p3071
g21
sS'00867'
p3072
g21
sS'00866'
p3073
g21
sS'00865'
p3074
g21
sS'00864'
p3075
g21
sS'00863'
p3076
g21
sS'00862'
p3077
g21
sS'00861'
p3078
g21
sS'00860'
p3079
g21
sS'01446'
p3080
g32
sS'01447'
p3081
g32
sS'01444'
p3082
g32
sS'01445'
p3083
g32
sS'01442'
p3084
g32
sS'01443'
p3085
g32
sS'01440'
p3086
g32
sS'01441'
p3087
g32
sS'01448'
p3088
g32
sS'01449'
p3089
g32
sS'05500'
p3090
g492
sS'05741'
p3091
g45
sS'05216'
p3092
g59
sS'05215'
p3093
g59
sS'05214'
p3094
g59
sS'05213'
p3095
g59
sS'05744'
p3096
g45
sS'05747'
p3097
g45
sS'05210'
p3098
g304
sS'05749'
p3099
g45
sS'05748'
p3100
g45
sS'05219'
p3101
g59
sS'05218'
p3102
g59
sS'01051'
p3103
g74
sS'01050'
p3104
g74
sS'01053'
p3105
g74
sS'01052'
p3106
g74
sS'01055'
p3107
g74
sS'01054'
p3108
g74
sS'01057'
p3109
g74
sS'01056'
p3110
g74
sS'01059'
p3111
g74
sS'01058'
p3112
g74
sS'05740'
p3113
g45
sS'04166'
p3114
g83
sS'04167'
p3115
g83
sS'04164'
p3116
g83
sS'04165'
p3117
g83
sS'04162'
p3118
g83
sS'04163'
p3119
g83
sS'04160'
p3120
g83
sS'04161'
p3121
g83
sS'04168'
p3122
g83
sS'04169'
p3123
g83
sS'03749'
p3124
g56
sS'03748'
p3125
g56
sS'03747'
p3126
g56
sS'03746'
p3127
g56
sS'03745'
p3128
g56
sS'03744'
p3129
g56
sS'03743'
p3130
g56
sS'03742'
p3131
g56
sS'03741'
p3132
g56
sS'03740'
p3133
g56
sS'02838'
p3134
g104
sS'02839'
p3135
g104
sS'02836'
p3136
g104
sS'02837'
p3137
g104
sS'02834'
p3138
g104
sS'02835'
p3139
g104
sS'02832'
p3140
g104
sS'02833'
p3141
g104
sS'02830'
p3142
g104
sS'02831'
p3143
g104
sS'00098'
p3144
g117
sS'00099'
p3145
g117
sS'00096'
p3146
g117
sS'00097'
p3147
g117
sS'00094'
p3148
g117
sS'00095'
p3149
g117
sS'00092'
p3150
g117
sS'00093'
p3151
g117
sS'00090'
p3152
g117
sS'00091'
p3153
g117
sS'03725'
p3154
g56
sS'03724'
p3155
g56
sS'03040'
p3156
g78
sS'03727'
p3157
g56
sS'03054'
p3158
g78
sS'03721'
p3159
g56
sS'03052'
p3160
g78
sS'03723'
p3161
g56
sS'03722'
p3162
g56
sS'05640'
p3163
g129
sS'05641'
p3164
g129
sS'05642'
p3165
g129
sS'01877'
p3166
g397
sS'01876'
p3167
g397
sS'01875'
p3168
g397
sS'01874'
p3169
g397
sS'01873'
p3170
g397
sS'01872'
p3171
g397
sS'01871'
p3172
g397
sS'01870'
p3173
g397
sS'05644'
p3174
g129
sS'01879'
p3175
g397
sS'05645'
p3176
g129
sS'05646'
p3177
g129
sS'05647'
p3178
g129
sS'03046'
p3179
g78
sS'03431'
p3180
g224
sS'03430'
p3181
g224
sS'04605'
p3182
g276
sS'03433'
p3183
g224
sS'00650'
p3184
g104
sS'00651'
p3185
g104
sS'00652'
p3186
g104
sS'00653'
p3187
g104
sS'00654'
p3188
g104
sS'00655'
p3189
g104
sS'00656'
p3190
g78
sS'00657'
p3191
g78
sS'04604'
p3192
g276
sS'02249'
p3193
g59
sS'02248'
p3194
g59
sS'02245'
p3195
g59
sS'02244'
p3196
g59
sS'02247'
p3197
g59
sS'02246'
p3198
g59
sS'02241'
p3199
g59
sS'02240'
p3200
g304
sS'02243'
p3201
g59
sS'02242'
p3202
g59
sS'05028'
p3203
g32
sS'05029'
p3204
g32
sS'05020'
p3205
g32
sS'05021'
p3206
g32
sS'05022'
p3207
g32
sS'05023'
p3208
g32
sS'05024'
p3209
g32
sS'05025'
p3210
g32
sS'05026'
p3211
g32
sS'05027'
p3212
g32
sS'03435'
p3213
g224
sS'04379'
p3214
g189
sS'04378'
p3215
g189
sS'04373'
p3216
g189
sS'04372'
p3217
g189
sS'04371'
p3218
g189
sS'04370'
p3219
g189
sS'04377'
p3220
g189
sS'04376'
p3221
g189
sS'04375'
p3222
g189
sS'04374'
p3223
g189
sS'04602'
p3224
g276
sS'02799'
p3225
g104
sS'02798'
p3226
g104
sS'02793'
p3227
g104
sS'02792'
p3228
g104
sS'02791'
p3229
g104
sS'02790'
p3230
g104
sS'02797'
p3231
g104
sS'02796'
p3232
g104
sS'02795'
p3233
g104
sS'02794'
p3234
g104
sS'05688'
p3235
g211
sS'05689'
p3236
g211
sS'05684'
p3237
g1201
sS'05685'
p3238
g211
sS'05686'
p3239
g211
sS'05687'
p3240
g211
sS'05680'
p3241
g1201
sS'05681'
p3242
g1201
sS'05682'
p3243
g1201
sS'05683'
p3244
g1201
sS'03354'
p3245
g224
sS'03355'
p3246
g224
sS'03356'
p3247
g224
sS'03357'
p3248
g224
sS'03350'
p3249
g224
sS'03351'
p3250
g224
sS'03352'
p3251
g224
sS'03353'
p3252
g224
sS'03358'
p3253
g224
sS'03359'
p3254
g224
sS'03688'
p3255
g56
sS'03689'
p3256
g56
sS'03682'
p3257
g56
sS'03683'
p3258
g56
sS'03680'
p3259
g56
sS'03681'
p3260
g56
sS'03686'
p3261
g56
sS'03687'
p3262
g56
sS'03684'
p3263
g56
sS'03685'
p3264
g56
sS'04081'
p3265
g83
sS'04080'
p3266
g83
sS'04083'
p3267
g83
sS'04082'
p3268
g83
sS'04085'
p3269
g83
sS'04084'
p3270
g83
sS'04087'
p3271
g83
sS'04086'
p3272
g83
sS'04089'
p3273
g83
sS'01263'
p3274
g276
sS'01260'
p3275
g276
sS'01261'
p3276
g276
sS'01266'
p3277
g276
sS'01267'
p3278
g186
sS'01264'
p3279
g276
sS'01265'
p3280
g276
sS'03530'
p3281
g56
sS'03531'
p3282
g56
sS'03532'
p3283
g56
sS'03533'
p3284
g56
sS'03534'
p3285
g56
sS'03535'
p3286
g56
sS'03536'
p3287
g56
sS'03537'
p3288
g56
sS'03538'
p3289
g56
sS'03539'
p3290
g56
sS'00135'
p3291
g481
sS'00134'
p3292
g481
sS'00137'
p3293
g481
sS'00136'
p3294
g481
sS'00131'
p3295
g481
sS'00130'
p3296
g481
sS'00133'
p3297
g481
sS'00132'
p3298
g481
sS'00139'
p3299
g481
sS'00138'
p3300
g481
sS'04968'
p3301
g3
sS'04969'
p3302
g3
sS'04966'
p3303
g492
sS'04967'
p3304
g492
sS'04964'
p3305
g492
sS'04965'
p3306
g492
sS'04962'
p3307
g492
sS'04963'
p3308
g492
sS'04960'
p3309
g492
sS'04961'
p3310
g492
sS'01468'
p3311
g32
sS'01469'
p3312
g32
sS'01464'
p3313
g32
sS'01465'
p3314
g32
sS'01466'
p3315
g32
sS'01467'
p3316
g32
sS'01460'
p3317
g32
sS'01461'
p3318
g32
sS'01462'
p3319
g32
sS'01463'
p3320
g32
sS'05769'
p3321
g397
sS'05768'
p3322
g45
sS'05767'
p3323
g45
sS'05766'
p3324
g45
sS'05765'
p3325
g45
sS'05764'
p3326
g45
sS'05763'
p3327
g45
sS'05762'
p3328
g45
sS'05761'
p3329
g45
sS'05760'
p3330
g45
sS'01079'
p3331
g353
sS'01078'
p3332
g353
sS'01077'
p3333
g353
sS'01076'
p3334
g353
sS'01075'
p3335
g353
sS'01074'
p3336
g74
sS'01073'
p3337
g74
sS'01072'
p3338
g74
sS'01071'
p3339
g74
sS'01070'
p3340
g74
sS'05356'
p3341
g224
sS'05357'
p3342
g224
sS'05354'
p3343
g224
sS'05355'
p3344
g224
sS'05352'
p3345
g224
sS'05353'
p3346
g224
sS'05350'
p3347
g224
sS'05351'
p3348
g224
sS'03923'
p3349
g74
sS'02476'
p3350
g117
sS'02477'
p3351
g117
sS'02474'
p3352
g117
sS'02475'
p3353
g117
sS'02472'
p3354
g117
sS'02473'
p3355
g117
sS'02470'
p3356
g117
sS'02471'
p3357
g117
sS'02478'
p3358
g117
sS'02479'
p3359
g117
sS'04148'
p3360
g83
sS'04149'
p3361
g83
sS'04418'
p3362
g189
sS'04419'
p3363
g189
sS'04416'
p3364
g189
sS'04417'
p3365
g189
sS'04414'
p3366
g189
sS'04415'
p3367
g189
sS'04412'
p3368
g189
sS'04141'
p3369
g83
sS'04142'
p3370
g83
sS'04411'
p3371
g189
sS'00308'
p3372
g78
sS'00309'
p3373
g78
sS'00306'
p3374
g78
sS'00307'
p3375
g78
sS'00304'
p3376
g78
sS'00305'
p3377
g78
sS'00302'
p3378
g78
sS'00303'
p3379
g78
sS'00300'
p3380
g78
sS'00301'
p3381
g78
sS'00688'
p3382
g78
sS'02278'
p3383
g59
sS'03300'
p3384
g224
sS'02279'
p3385
g59
sS'03795'
p3386
g74
sS'02814'
p3387
g104
sS'02815'
p3388
g104
sS'02816'
p3389
g104
sS'02817'
p3390
g104
sS'02810'
p3391
g104
sS'02811'
p3392
g104
sS'02812'
p3393
g104
sS'02813'
p3394
g104
sS'02818'
p3395
g104
sS'02819'
p3396
g104
sS'01899'
p3397
g397
sS'01898'
p3398
g397
sS'01895'
p3399
g397
sS'01894'
p3400
g397
sS'01897'
p3401
g397
sS'01896'
p3402
g397
sS'01891'
p3403
g397
sS'01890'
p3404
g397
sS'01893'
p3405
g397
sS'01892'
p3406
g397
sS'02269'
p3407
g59
sS'02268'
p3408
g59
sS'02263'
p3409
g59
sS'02262'
p3410
g59
sS'02261'
p3411
g59
sS'02260'
p3412
g59
sS'02267'
p3413
g59
sS'02266'
p3414
g59
sS'02265'
p3415
g59
sS'02264'
p3416
g59
sS'03146'
p3417
g78
sS'04311'
p3418
g191
sS'04310'
p3419
g191
sS'04313'
p3420
g191
sS'01799'
p3421
g45
sS'04315'
p3422
g191
sS'04314'
p3423
g191
sS'04317'
p3424
g191
sS'04316'
p3425
g191
sS'04319'
p3426
g191
sS'01793'
p3427
g45
sS'01790'
p3428
g45
sS'01791'
p3429
g45
sS'01796'
p3430
g45
sS'01797'
p3431
g45
sS'01794'
p3432
g45
sS'01795'
p3433
g45
sS'03332'
p3434
g224
sS'03333'
p3435
g224
sS'03330'
p3436
g224
sS'03331'
p3437
g224
sS'03336'
p3438
g224
sS'03337'
p3439
g224
sS'03334'
p3440
g224
sS'03335'
p3441
g224
sS'03338'
p3442
g224
sS'03339'
p3443
g224
sS'05406'
p3444
g191
sS'05407'
p3445
g189
sS'05404'
p3446
g191
sS'05405'
p3447
g191
sS'05402'
p3448
g83
sS'05403'
p3449
g191
sS'05400'
p3450
g83
sS'05401'
p3451
g83
sS'05408'
p3452
g189
sS'05409'
p3453
g189
sS'01240'
p3454
g280
sS'01241'
p3455
g280
sS'01242'
p3456
g280
sS'01243'
p3457
g280
sS'01244'
p3458
g280
sS'01245'
p3459
g280
sS'01246'
p3460
g280
sS'01247'
p3461
g280
sS'01248'
p3462
g280
sS'01249'
p3463
g280
sS'02289'
p3464
g59
sS'02288'
p3465
g59
sS'00113'
p3466
g481
sS'00112'
p3467
g481
sS'00111'
p3468
g481
sS'00110'
p3469
g481
sS'00117'
p3470
g481
sS'00116'
p3471
g481
sS'00115'
p3472
g481
sS'00114'
p3473
g481
sS'00119'
p3474
g481
sS'00118'
p3475
g481
sS'04944'
p3476
g492
sS'04945'
p3477
g492
sS'04946'
p3478
g492
sS'04947'
p3479
g492
sS'04940'
p3480
g492
sS'04941'
p3481
g492
sS'04942'
p3482
g492
sS'04943'
p3483
g492
sS'04948'
p3484
g492
sS'04949'
p3485
g492
sS'00162'
p3486
g481
sS'01815'
p3487
g45
sS'01408'
p3488
g32
sS'01409'
p3489
g32
sS'01814'
p3490
g45
sS'01402'
p3491
g3
sS'01403'
p3492
g3
sS'01400'
p3493
g3
sS'01401'
p3494
g3
sS'01406'
p3495
g32
sS'01407'
p3496
g32
sS'01404'
p3497
g3
sS'01405'
p3498
g32
sS'01816'
p3499
g45
sS'01811'
p3500
g45
sS'01810'
p3501
g45
sS'01541'
p3502
g784
sS'01540'
p3503
g784
sS'04302'
p3504
g191
sS'04303'
p3505
g191
sS'03907'
p3506
g74
sS'04301'
p3507
g191
sS'04306'
p3508
g191
sS'04307'
p3509
g191
sS'04304'
p3510
g191
sS'03902'
p3511
g74
sS'00755'
p3512
g74
sS'00754'
p3513
g74
sS'00757'
p3514
g74
sS'00756'
p3515
g74
sS'00751'
p3516
g74
sS'00750'
p3517
g74
sS'00753'
p3518
g74
sS'00752'
p3519
g74
sS'00759'
p3520
g353
sS'00758'
p3521
g74
sS'03655'
p3522
g56
sS'02458'
p3523
g117
sS'02459'
p3524
g117
sS'03654'
p3525
g56
sS'02454'
p3526
g117
sS'02455'
p3527
g117
sS'02456'
p3528
g117
sS'02457'
p3529
g117
sS'02450'
p3530
g117
sS'02451'
p3531
g117
sS'02452'
p3532
g117
sS'02453'
p3533
g117
sS'04434'
p3534
g189
sS'04435'
p3535
g189
sS'04436'
p3536
g189
sS'04437'
p3537
g189
sS'04430'
p3538
g189
sS'04431'
p3539
g189
sS'04432'
p3540
g189
sS'04433'
p3541
g189
sS'03651'
p3542
g56
sS'04438'
p3543
g21
sS'04439'
p3544
g21
sS'03650'
p3545
g56
sS'00324'
p3546
g353
sS'00325'
p3547
g353
sS'00326'
p3548
g353
sS'04129'
p3549
g83
sS'00320'
p3550
g353
sS'00321'
p3551
g353
sS'00322'
p3552
g353
sS'00323'
p3553
g353
sS'04122'
p3554
g83
sS'04123'
p3555
g83
sS'04120'
p3556
g83
sS'04121'
p3557
g83
sS'00328'
p3558
g353
sS'00329'
p3559
g353
sS'04124'
p3560
g83
sS'04125'
p3561
g83
sS'04128'
p3562
g83
sS'00327'
p3563
g353
sS'04126'
p3564
g83
sS'04127'
p3565
g83
sS'05510'
p3566
g492
sS'05511'
p3567
g492
sS'05512'
p3568
g492
sS'05513'
p3569
g492
sS'05514'
p3570
g492
sS'05515'
p3571
g492
sS'03475'
p3572
g224
sS'03474'
p3573
g224
sS'03477'
p3574
g224
sS'03476'
p3575
g224
sS'03471'
p3576
g224
sS'03470'
p3577
g224
sS'03473'
p3578
g224
sS'03472'
p3579
g224
sS'05041'
p3580
g784
sS'03479'
p3581
g224
sS'03478'
p3582
g224
sS'02872'
p3583
g104
sS'02873'
p3584
g104
sS'02870'
p3585
g104
sS'02871'
p3586
g104
sS'02876'
p3587
g104
sS'02877'
p3588
g104
sS'02874'
p3589
g104
sS'02875'
p3590
g104
sS'02878'
p3591
g104
sS'02879'
p3592
g104
sS'05543'
p3593
g3
sS'05541'
p3594
g3
sS'00928'
p3595
g481
sS'00929'
p3596
g481
sS'00926'
p3597
g481
sS'00927'
p3598
g481
sS'00924'
p3599
g481
sS'00925'
p3600
g481
sS'00922'
p3601
g481
sS'00923'
p3602
g481
sS'00920'
p3603
g481
sS'00921'
p3604
g481
sS'00694'
p3605
g78
sS'00695'
p3606
g78
sS'00696'
p3607
g304
sS'00697'
p3608
g224
sS'00690'
p3609
g78
sS'00691'
p3610
g78
sS'00692'
p3611
g78
sS'00693'
p3612
g78
sS'00698'
p3613
g224
sS'00699'
p3614
g224
sS'02201'
p3615
g304
sS'02200'
p3616
g304
sS'02203'
p3617
g304
sS'02202'
p3618
g304
sS'02205'
p3619
g304
sS'02204'
p3620
g304
sS'02207'
p3621
g304
sS'02206'
p3622
g304
sS'02209'
p3623
g304
sS'02208'
p3624
g304
sS'03916'
p3625
g74
sS'03917'
p3626
g74
sS'03914'
p3627
g74
sS'03915'
p3628
g74
sS'03912'
p3629
g74
sS'03913'
p3630
g74
sS'03910'
p3631
g74
sS'03911'
p3632
g74
sS'04337'
p3633
g191
sS'04336'
p3634
g191
sS'04335'
p3635
g191
sS'04334'
p3636
g191
sS'04333'
p3637
g191
sS'04332'
p3638
g191
sS'04331'
p3639
g191
sS'04330'
p3640
g191
sS'03318'
p3641
g224
sS'03319'
p3642
g224
sS'03648'
p3643
g56
sS'03649'
p3644
g56
sS'03646'
p3645
g56
sS'03647'
p3646
g56
sS'03312'
p3647
g224
sS'03645'
p3648
g56
sS'03314'
p3649
g224
sS'03315'
p3650
g224
sS'03316'
p3651
g224
sS'03317'
p3652
g224
sS'05428'
p3653
g21
sS'05429'
p3654
g21
sS'05424'
p3655
g21
sS'05425'
p3656
g21
sS'05426'
p3657
g21
sS'05427'
p3658
g21
sS'05420'
p3659
g189
sS'05421'
p3660
g189
sS'05422'
p3661
g189
sS'05423'
p3662
g21
sS'05625'
p3663
g784
sS'04593'
p3664
g276
sS'04592'
p3665
g276
sS'04591'
p3666
g276
sS'04590'
p3667
g276
sS'04597'
p3668
g276
sS'04596'
p3669
g276
sS'04595'
p3670
g276
sS'04594'
p3671
g276
sS'04599'
p3672
g276
sS'04598'
p3673
g276
sS'02999'
p3674
g78
sS'02998'
p3675
g78
sS'02991'
p3676
g78
sS'02990'
p3677
g78
sS'02993'
p3678
g78
sS'02992'
p3679
g78
sS'02995'
p3680
g78
sS'02994'
p3681
g78
sS'02997'
p3682
g78
sS'02996'
p3683
g78
sS'00179'
p3684
g597
sS'00178'
p3685
g597
sS'00171'
p3686
g597
sS'00170'
p3687
g597
sS'00173'
p3688
g597
sS'00172'
p3689
g597
sS'00175'
p3690
g597
sS'00174'
p3691
g597
sS'00177'
p3692
g597
sS'00176'
p3693
g597
sS'02191'
p3694
g304
sS'02190'
p3695
g304
sS'02193'
p3696
g304
sS'02192'
p3697
g304
sS'02195'
p3698
g304
sS'02194'
p3699
g304
sS'02197'
p3700
g304
sS'02196'
p3701
g304
sS'02199'
p3702
g304
sS'02198'
p3703
g304
sS'04922'
p3704
g668
sS'04923'
p3705
g668
sS'04920'
p3706
g896
sS'04921'
p3707
g896
sS'04926'
p3708
g668
sS'04927'
p3709
g668
sS'04924'
p3710
g668
sS'04925'
p3711
g668
sS'04928'
p3712
g668
sS'04929'
p3713
g668
sS'01420'
p3714
g32
sS'01421'
p3715
g32
sS'01422'
p3716
g32
sS'01423'
p3717
g32
sS'01424'
p3718
g32
sS'01425'
p3719
g32
sS'01426'
p3720
g32
sS'01427'
p3721
g32
sS'01428'
p3722
g32
sS'01429'
p3723
g32
sS'04391'
p3724
g189
sS'04390'
p3725
g189
sS'04393'
p3726
g189
sS'04392'
p3727
g189
sS'04647'
p3728
g235
sS'04646'
p3729
g235
sS'04645'
p3730
g235
sS'04644'
p3731
g186
sS'00773'
p3732
g1831
sS'00772'
p3733
g1831
sS'00771'
p3734
g1831
sS'00770'
p3735
g1831
sS'00777'
p3736
g1831
sS'00776'
p3737
g1831
sS'00775'
p3738
g1831
sS'00774'
p3739
g1831
sS'00779'
p3740
g83
sS'00778'
p3741
g1831
sS'02438'
p3742
g403
sS'02439'
p3743
g403
sS'02432'
p3744
g403
sS'02433'
p3745
g403
sS'02430'
p3746
g403
sS'02431'
p3747
g403
sS'02436'
p3748
g403
sS'02437'
p3749
g403
sS'02434'
p3750
g403
sS'02435'
p3751
g403
sS'04100'
p3752
g83
sS'04101'
p3753
g83
sS'04102'
p3754
g83
sS'04103'
p3755
g83
sS'04456'
p3756
g21
sS'04457'
p3757
g21
sS'04106'
p3758
g83
sS'04455'
p3759
g21
sS'04108'
p3760
g83
sS'04109'
p3761
g83
sS'04458'
p3762
g21
sS'04459'
p3763
g21
sS'00342'
p3764
g83
sS'00343'
p3765
g83
sS'00340'
p3766
g83
sS'00341'
p3767
g83
sS'00346'
p3768
g83
sS'00347'
p3769
g83
sS'00344'
p3770
g83
sS'00345'
p3771
g83
sS'00348'
p3772
g83
sS'00349'
p3773
g83
sS'01817'
p3774
g45
sS'03126'
p3775
g78
sS'05850'
p3776
g983
sS'01165'
p3777
g191
sS'01164'
p3778
g191
sS'01167'
p3779
g191
sS'01166'
p3780
g191
sS'01161'
p3781
g191
sS'01160'
p3782
g191
sS'01163'
p3783
g191
sS'01162'
p3784
g191
sS'01169'
p3785
g191
sS'03042'
p3786
g78
sS'03043'
p3787
g78
sS'03732'
p3788
g56
sS'03733'
p3789
g56
sS'03453'
p3790
g224
sS'03452'
p3791
g224
sS'03451'
p3792
g224
sS'03450'
p3793
g224
sS'03109'
p3794
g78
sS'03108'
p3795
g78
sS'03455'
p3796
g224
sS'03454'
p3797
g224
sS'03105'
p3798
g78
sS'03104'
p3799
g78
sS'03459'
p3800
g224
sS'03106'
p3801
g78
sS'03101'
p3802
g78
sS'03100'
p3803
g78
sS'03103'
p3804
g78
sS'03102'
p3805
g78
sS'02858'
p3806
g104
sS'02859'
p3807
g104
sS'02850'
p3808
g104
sS'02851'
p3809
g104
sS'02852'
p3810
g104
sS'02853'
p3811
g104
sS'02854'
p3812
g104
sS'02855'
p3813
g104
sS'02856'
p3814
g104
sS'02857'
p3815
g104
sS'00904'
p3816
g117
sS'00905'
p3817
g117
sS'00906'
p3818
g117
sS'00907'
p3819
g117
sS'00900'
p3820
g117
sS'00901'
p3821
g117
sS'00902'
p3822
g117
sS'00903'
p3823
g117
sS'00908'
p3824
g117
sS'00909'
p3825
g117
sS'02229'
p3826
g304
sS'02228'
p3827
g304
sS'02227'
p3828
g304
sS'02226'
p3829
g304
sS'02225'
p3830
g304
sS'02224'
p3831
g304
sS'02223'
p3832
g304
sS'02222'
p3833
g304
sS'02221'
p3834
g304
sS'02220'
p3835
g304
sS'05198'
p3836
g304
sS'05199'
p3837
g304
sS'05628'
p3838
g784
sS'05629'
p3839
g784
sS'05194'
p3840
g304
sS'05195'
p3841
g304
sS'05624'
p3842
g784
sS'05197'
p3843
g304
sS'05622'
p3844
g784
sS'05623'
p3845
g784
sS'05620'
p3846
g784
sS'05621'
p3847
g784
sS'01758'
p3848
g211
sS'01759'
p3849
g211
sS'01756'
p3850
g211
sS'01757'
p3851
g211
sS'01754'
p3852
g211
sS'01755'
p3853
g211
sS'01752'
p3854
g211
sS'01753'
p3855
g211
sS'01750'
p3856
g211
sS'01751'
p3857
g211
sS'03938'
p3858
g74
sS'03939'
p3859
g74
sS'03934'
p3860
g74
sS'03935'
p3861
g74
sS'03936'
p3862
g74
sS'03937'
p3863
g74
sS'03930'
p3864
g74
sS'03931'
p3865
g74
sS'03932'
p3866
g74
sS'03933'
p3867
g74
sS'01284'
p3868
g235
sS'01285'
p3869
g235
sS'05448'
p3870
g276
sS'05449'
p3871
g186
sS'01280'
p3872
g235
sS'01281'
p3873
g235
sS'01282'
p3874
g235
sS'01283'
p3875
g235
sS'05442'
p3876
g276
sS'05443'
p3877
g276
sS'05440'
p3878
g280
sS'05441'
p3879
g276
sS'05446'
p3880
g276
sS'05447'
p3881
g276
sS'05444'
p3882
g276
sS'05445'
p3883
g276
sS'03664'
p3884
g56
sS'00488'
p3885
g59
sS'03666'
p3886
g56
sS'03667'
p3887
g56
sS'03660'
p3888
g56
sS'03661'
p3889
g56
sS'03662'
p3890
g56
sS'03663'
p3891
g56
sS'00481'
p3892
g59
sS'00480'
p3893
g59
sS'00483'
p3894
g59
sS'00482'
p3895
g59
sS'00485'
p3896
g59
sS'00484'
p3897
g59
sS'00487'
p3898
g59
sS'00486'
p3899
g59
sS'04715'
p3900
g838
sS'04714'
p3901
g838
sS'04717'
p3902
g838
sS'04716'
p3903
g838
sS'04711'
p3904
g838
sS'04710'
p3905
g838
sS'04713'
p3906
g838
sS'04712'
p3907
g838
sS'04719'
p3908
g838
sS'04718'
p3909
g838
sS'00157'
p3910
g481
sS'00156'
p3911
g481
sS'00155'
p3912
g481
sS'00154'
p3913
g481
sS'00153'
p3914
g481
sS'00152'
p3915
g481
sS'00151'
p3916
g481
sS'00150'
p3917
g481
sS'00159'
p3918
g481
sS'00158'
p3919
g481
sS'03592'
p3920
g56
sS'03593'
p3921
g56
sS'03590'
p3922
g56
sS'03591'
p3923
g56
sS'03596'
p3924
g56
sS'03597'
p3925
g56
sS'03594'
p3926
g56
sS'03595'
p3927
g56
sS'03598'
p3928
g56
sS'03599'
p3929
g56
sS'04908'
p3930
g896
sS'04909'
p3931
g896
sS'04900'
p3932
g896
sS'04901'
p3933
g896
sS'04902'
p3934
g896
sS'04903'
p3935
g896
sS'04904'
p3936
g896
sS'04905'
p3937
g896
sS'04906'
p3938
g896
sS'04907'
p3939
g896
sS'01990'
p3940
g907
sS'01991'
p3941
g907
sS'01992'
p3942
g907
sS'01993'
p3943
g907
sS'01994'
p3944
g907
sS'01995'
p3945
g907
sS'01996'
p3946
g907
sS'01997'
p3947
g907
sS'01998'
p3948
g907
sS'01999'
p3949
g907
sS'03026'
p3950
g78
sS'01580'
p3951
g129
sS'03024'
p3952
g78
sS'01586'
p3953
g129
sS'00719'
p3954
g56
sS'00718'
p3955
g56
sS'00711'
p3956
g224
sS'00710'
p3957
g224
sS'00713'
p3958
g224
sS'00712'
p3959
g224
sS'00715'
p3960
g224
sS'00714'
p3961
g224
sS'00717'
p3962
g56
sS'00716'
p3963
g56
sS'02410'
p3964
g403
sS'02411'
p3965
g403
sS'02412'
p3966
g403
sS'02413'
p3967
g403
sS'02414'
p3968
g403
sS'02415'
p3969
g403
sS'02416'
p3970
g403
sS'02417'
p3971
g403
sS'02418'
p3972
g403
sS'02419'
p3973
g403
sS'05299'
p3974
g1150
sS'05298'
p3975
g1150
sS'05297'
p3976
g1150
sS'05296'
p3977
g1150
sS'05295'
p3978
g1150
sS'05294'
p3979
g1150
sS'05293'
p3980
g1150
sS'05292'
p3981
g1150
sS'05291'
p3982
g1150
sS'05290'
p3983
g1150
sS'04478'
p3984
g21
sS'04479'
p3985
g21
sS'04470'
p3986
g21
sS'04471'
p3987
g21
sS'04472'
p3988
g21
sS'04473'
p3989
g21
sS'04474'
p3990
g21
sS'04475'
p3991
g21
sS'04476'
p3992
g21
sS'04477'
p3993
g21
sS'00368'
p3994
g32
sS'00369'
p3995
g32
sS'00360'
p3996
g21
sS'00361'
p3997
g280
sS'00362'
p3998
g276
sS'00363'
p3999
g276
sS'00364'
p4000
g838
sS'00365'
p4001
g896
sS'00366'
p4002
g492
sS'00367'
p4003
g3
sS'03107'
p4004
g78
sS'01143'
p4005
g191
sS'01142'
p4006
g191
sS'01141'
p4007
g191
sS'01140'
p4008
g191
sS'01147'
p4009
g191
sS'01146'
p4010
g191
sS'01145'
p4011
g191
sS'01144'
p4012
g191
sS'01149'
p4013
g191
sS'01148'
p4014
g191
sS'03439'
p4015
g224
sS'03438'
p4016
g224
sS'03129'
p4017
g78
sS'03128'
p4018
g78
sS'03123'
p4019
g78
sS'03122'
p4020
g78
sS'03121'
p4021
g78
sS'03120'
p4022
g78
sS'03127'
p4023
g78
sS'03434'
p4024
g224
sS'03437'
p4025
g224
sS'03436'
p4026
g224
sS'00689'
p4027
g78
sS'01168'
p4028
g191
sS'03124'
p4029
g78
sS'00962'
p4030
g78
sS'00963'
p4031
g78
sS'00960'
p4032
g78
sS'00961'
p4033
g78
sS'00966'
p4034
g78
sS'00967'
p4035
g78
sS'00964'
p4036
g78
sS'00965'
p4037
g78
sS'00968'
p4038
g78
sS'00969'
p4039
g78
sS'05604'
p4040
g32
sS'05605'
p4041
g32
sS'05606'
p4042
g32
sS'05607'
p4043
g32
sS'05600'
p4044
g32
sS'05601'
p4045
g32
sS'05602'
p4046
g32
sS'05603'
p4047
g32
sS'05608'
p4048
g32
sS'05609'
p4049
g784
sS'01774'
p4050
g211
sS'01775'
p4051
g211
sS'01776'
p4052
g211
sS'01777'
p4053
g211
sS'01770'
p4054
g211
sS'01771'
p4055
g211
sS'01772'
p4056
g211
sS'01773'
p4057
g211
sS'01778'
p4058
g211
sS'01779'
p4059
g45
sS'03958'
p4060
g74
sS'03959'
p4061
g74
sS'03952'
p4062
g74
sS'03953'
p4063
g74
sS'03950'
p4064
g74
sS'03951'
p4065
g74
sS'03956'
p4066
g74
sS'03957'
p4067
g74
sS'03954'
p4068
g74
sS'03955'
p4069
g74
sS'05460'
p4070
g235
sS'05461'
p4071
g235
sS'05462'
p4072
g838
sS'05463'
p4073
g838
sS'05464'
p4074
g838
sS'05465'
p4075
g838
sS'05466'
p4076
g1069
sS'05467'
p4077
g1069
sS'05468'
p4078
g1069
sS'05469'
p4079
g1069
sS'03602'
p4080
g56
sS'03603'
p4081
g56
sS'03600'
p4082
g56
sS'03601'
p4083
g56
sS'03606'
p4084
g56
sS'03607'
p4085
g56
sS'03604'
p4086
g56
sS'03605'
p4087
g56
sS'03608'
p4088
g56
sS'03609'
p4089
g56
sS'02609'
p4090
g481
sS'02608'
p4091
g481
sS'02959'
p4092
g104
sS'02958'
p4093
g104
sS'02955'
p4094
g104
sS'02954'
p4095
g104
sS'02957'
p4096
g104
sS'02956'
p4097
g104
sS'02951'
p4098
g104
sS'02950'
p4099
g104
sS'02953'
p4100
g104
sS'02952'
p4101
g104
sS'04733'
p4102
g838
sS'04732'
p4103
g838
sS'04731'
p4104
g838
sS'04730'
p4105
g838
sS'04737'
p4106
g838
sS'04736'
p4107
g838
sS'04735'
p4108
g838
sS'04734'
p4109
g838
sS'04739'
p4110
g838
sS'04738'
p4111
g838
sS'01978'
p4112
g907
sS'01979'
p4113
g907
sS'01976'
p4114
g907
sS'01977'
p4115
g907
sS'01974'
p4116
g907
sS'01975'
p4117
g907
sS'01972'
p4118
g907
sS'01973'
p4119
g907
sS'01970'
p4120
g907
sS'01971'
p4121
g907
sS'02902'
p4122
g104
sS'02903'
p4123
g104
sS'02900'
p4124
g104
sS'02901'
p4125
g104
sS'02906'
p4126
g104
sS'02907'
p4127
g104
sS'02904'
p4128
g104
sS'02905'
p4129
g104
sS'01806'
p4130
g45
sS'01807'
p4131
g45
sS'01552'
p4132
g784
sS'01553'
p4133
g784
sS'01802'
p4134
g45
sS'01555'
p4135
g784
sS'01800'
p4136
g45
sS'01801'
p4137
g45
sS'04339'
p4138
g191
sS'04338'
p4139
g191
sS'00737'
p4140
g74
sS'00736'
p4141
g74
sS'00735'
p4142
g74
sS'00734'
p4143
g56
sS'00733'
p4144
g56
sS'00732'
p4145
g56
sS'00731'
p4146
g56
sS'00730'
p4147
g56
sS'00739'
p4148
g74
sS'00738'
p4149
g74
sS'02380'
p4150
g403
sS'02381'
p4151
g403
sS'02382'
p4152
g403
sS'02383'
p4153
g403
sS'02384'
p4154
g403
sS'02385'
p4155
g403
sS'02386'
p4156
g403
sS'02387'
p4157
g403
sS'02388'
p4158
g403
sS'02389'
p4159
g403
sS'03918'
p4160
g74
sS'03919'
p4161
g74
sS'04117'
p4162
g83
sS'04116'
p4163
g83
sS'04115'
p4164
g83
sS'04114'
p4165
g83
sS'04113'
p4166
g83
sS'04112'
p4167
g83
sS'04111'
p4168
g83
sS'04110'
p4169
g83
sS'03310'
p4170
g224
sS'03311'
p4171
g224
sS'03644'
p4172
g56
sS'03313'
p4173
g224
sS'03642'
p4174
g56
sS'03643'
p4175
g56
sS'03640'
p4176
g56
sS'03641'
p4177
g56
sS'05819'
p4178
g907
sS'05818'
p4179
g907
sS'05811'
p4180
g397
sS'05810'
p4181
g397
sS'05813'
p4182
g397
sS'05812'
p4183
g397
sS'05815'
p4184
g397
sS'05814'
p4185
g397
sS'05817'
p4186
g907
sS'05816'
p4187
g907
sS'01129'
p4188
g191
sS'01128'
p4189
g191
sS'01121'
p4190
g191
sS'01120'
p4191
g191
sS'01123'
p4192
g191
sS'01122'
p4193
g191
sS'01125'
p4194
g191
sS'01124'
p4195
g191
sS'01127'
p4196
g191
sS'01126'
p4197
g191
sS'03141'
p4198
g78
sS'03140'
p4199
g78
sS'03143'
p4200
g78
sS'03142'
p4201
g78
sS'03145'
p4202
g78
sS'03144'
p4203
g78
sS'03147'
p4204
g78
sS'03410'
p4205
g224
sS'03149'
p4206
g78
sS'03148'
p4207
g78
sS'03419'
p4208
g224
sS'03418'
p4209
g224
sS'02040'
p4210
g983
sS'00948'
p4211
g597
sS'00949'
p4212
g597
sS'03890'
p4213
g74
sS'00940'
p4214
g597
sS'00941'
p4215
g597
sS'00942'
p4216
g597
sS'00943'
p4217
g597
sS'00944'
p4218
g597
sS'00945'
p4219
g597
sS'00946'
p4220
g597
sS'00947'
p4221
g597
sS'05244'
p4222
g403
sS'05662'
p4223
g129
sS'05663'
p4224
g129
sS'05660'
p4225
g129
sS'05661'
p4226
g129
sS'05666'
p4227
g1201
sS'05667'
p4228
g1201
sS'05664'
p4229
g129
sS'05665'
p4230
g1201
sS'05668'
p4231
g1201
sS'05669'
p4232
g1201
sS'01712'
p4233
g211
sS'01713'
p4234
g211
sS'01710'
p4235
g211
sS'01711'
p4236
g211
sS'01716'
p4237
g211
sS'01717'
p4238
g211
sS'01714'
p4239
g211
sS'01715'
p4240
g211
sS'01718'
p4241
g211
sS'01719'
p4242
g211
sS'03970'
p4243
g74
sS'03971'
p4244
g74
sS'03972'
p4245
g74
sS'03973'
p4246
g74
sS'03974'
p4247
g74
sS'03975'
p4248
g74
sS'03976'
p4249
g74
sS'03977'
p4250
g74
sS'03978'
p4251
g74
sS'03979'
p4252
g74
sS'05488'
p4253
g668
sS'05489'
p4254
g668
sS'05486'
p4255
g668
sS'05487'
p4256
g668
sS'05484'
p4257
g896
sS'05485'
p4258
g668
sS'05482'
p4259
g115
sS'05483'
p4260
g896
sS'05480'
p4261
g115
sS'05481'
p4262
g115
sS'02595'
p4263
g481
sS'02594'
p4264
g481
sS'02597'
p4265
g481
sS'02596'
p4266
g481
sS'02591'
p4267
g481
sS'02590'
p4268
g481
sS'02593'
p4269
g481
sS'02592'
p4270
g481
sS'02599'
p4271
g481
sS'02598'
p4272
g481
sS'04283'
p4273
g191
sS'04282'
p4274
g191
sS'04281'
p4275
g191
sS'04280'
p4276
g191
sS'04287'
p4277
g191
sS'04286'
p4278
g191
sS'04285'
p4279
g191
sS'04284'
p4280
g191
sS'04535'
p4281
g280
sS'04534'
p4282
g280
sS'04289'
p4283
g191
sS'04536'
p4284
g280
sS'04531'
p4285
g280
sS'04530'
p4286
g280
sS'04533'
p4287
g280
sS'04532'
p4288
g280
sS'00449'
p4289
g983
sS'00448'
p4290
g983
sS'00445'
p4291
g907
sS'00444'
p4292
g907
sS'00447'
p4293
g907
sS'00446'
p4294
g907
sS'00441'
p4295
g907
sS'00440'
p4296
g907
sS'00443'
p4297
g907
sS'00442'
p4298
g907
sS'03628'
p4299
g56
sS'03629'
p4300
g56
sS'02621'
p4301
g481
sS'02620'
p4302
g481
sS'02627'
p4303
g481
sS'02626'
p4304
g481
sS'02625'
p4305
g481
sS'02624'
p4306
g481
sS'03620'
p4307
g56
sS'03621'
p4308
g56
sS'03622'
p4309
g56
sS'03623'
p4310
g56
sS'03624'
p4311
g56
sS'03625'
p4312
g56
sS'03626'
p4313
g56
sS'03627'
p4314
g56
sS'02979'
p4315
g78
sS'02978'
p4316
g78
sS'02973'
p4317
g104
sS'02972'
p4318
g104
sS'02971'
p4319
g104
sS'02970'
p4320
g104
sS'02977'
p4321
g78
sS'02976'
p4322
g104
sS'02975'
p4323
g104
sS'02974'
p4324
g104
sS'04759'
p4325
g838
sS'04758'
p4326
g838
sS'04751'
p4327
g838
sS'04750'
p4328
g838
sS'04753'
p4329
g838
sS'04752'
p4330
g838
sS'04755'
p4331
g838
sS'04754'
p4332
g838
sS'04757'
p4333
g838
sS'04756'
p4334
g838
sS'00199'
p4335
g597
sS'00198'
p4336
g597
sS'00193'
p4337
g597
sS'00192'
p4338
g597
sS'00191'
p4339
g597
sS'00190'
p4340
g597
sS'00197'
p4341
g597
sS'00196'
p4342
g597
sS'00195'
p4343
g597
sS'00194'
p4344
g597
sS'03088'
p4345
g78
sS'03089'
p4346
g78
sS'03084'
p4347
g78
sS'03085'
p4348
g78
sS'03086'
p4349
g78
sS'03087'
p4350
g78
sS'03080'
p4351
g78
sS'03081'
p4352
g78
sS'03082'
p4353
g78
sS'03083'
p4354
g78
sS'01954'
p4355
g397
sS'01955'
p4356
g397
sS'01956'
p4357
g397
sS'01957'
p4358
g397
sS'01950'
p4359
g397
sS'01951'
p4360
g397
sS'01952'
p4361
g397
sS'01953'
p4362
g397
sS'01958'
p4363
g907
sS'01959'
p4364
g907
sS'01482'
p4365
g32
sS'01483'
p4366
g32
sS'01480'
p4367
g32
sS'01481'
p4368
g32
sS'01486'
p4369
g32
sS'01487'
p4370
g32
sS'01484'
p4371
g32
sS'01485'
p4372
g32
sS'01488'
p4373
g32
sS'01489'
p4374
g32
sS'00546'
p4375
g403
sS'00547'
p4376
g403
sS'05257'
p4377
g117
sS'05256'
p4378
g117
sS'05259'
p4379
g117
sS'02025'
p4380
g907
sS'02024'
p4381
g907
sS'02027'
p4382
g907
sS'05706'
p4383
g211
sS'02021'
p4384
g907
sS'02020'
p4385
g907
sS'02023'
p4386
g907
sS'02022'
p4387
g907
sS'00548'
p4388
g117
sS'02029'
p4389
g983
sS'02028'
p4390
g983
sS'00549'
p4391
g117
sS'02368'
p4392
g403
sS'02369'
p4393
g403
sS'02366'
p4394
g403
sS'02367'
p4395
g403
sS'02364'
p4396
g403
sS'02365'
p4397
g403
sS'02362'
p4398
g403
sS'02363'
p4399
g403
sS'02360'
p4400
g403
sS'02361'
p4401
g403
sS'02768'
p4402
g104
sS'02769'
p4403
g104
sS'05389'
p4404
g353
sS'05388'
p4405
g353
sS'05345'
p4406
g78
sS'05344'
p4407
g78
sS'05347'
p4408
g224
sS'05346'
p4409
g78
sS'05341'
p4410
g78
sS'05340'
p4411
g78
sS'05343'
p4412
g78
sS'05342'
p4413
g78
sS'05349'
p4414
g224
sS'05348'
p4415
g224
sS'05839'
p4416
g907
sS'05838'
p4417
g907
sS'01107'
p4418
g191
sS'01106'
p4419
g191
sS'01105'
p4420
g191
sS'01104'
p4421
g83
sS'01103'
p4422
g83
sS'01102'
p4423
g83
sS'01101'
p4424
g83
sS'01100'
p4425
g83
sS'01109'
p4426
g191
sS'01108'
p4427
g191
sS'03700'
p4428
g56
sS'03169'
p4429
g78
sS'03168'
p4430
g78
sS'03167'
p4431
g78
sS'03166'
p4432
g78
sS'03165'
p4433
g78
sS'03164'
p4434
g78
sS'03163'
p4435
g78
sS'03162'
p4436
g78
sS'03161'
p4437
g78
sS'03160'
p4438
g78
sS'00276'
p4439
g78
sS'00277'
p4440
g78
sS'00274'
p4441
g104
sS'00275'
p4442
g78
sS'00272'
p4443
g104
sS'00273'
p4444
g104
sS'00270'
p4445
g104
sS'00271'
p4446
g104
sS'00278'
p4447
g78
sS'00279'
p4448
g78
sS'05648'
p4449
g129
sS'05649'
p4450
g129
sS'05138'
p4451
g45
sS'05139'
p4452
g45
sS'05136'
p4453
g45
sS'05137'
p4454
g45
sS'05134'
p4455
g45
sS'05135'
p4456
g45
sS'05132'
p4457
g45
sS'05133'
p4458
g45
sS'05130'
p4459
g211
sS'05131'
p4460
g45
sS'01738'
p4461
g211
sS'01739'
p4462
g211
sS'01730'
p4463
g211
sS'01731'
p4464
g211
sS'01732'
p4465
g211
sS'01733'
p4466
g211
sS'01734'
p4467
g211
sS'01735'
p4468
g211
sS'01736'
p4469
g211
sS'01737'
p4470
g211
sS'03998'
p4471
g353
sS'03999'
p4472
g353
sS'03996'
p4473
g353
sS'03997'
p4474
g353
sS'03994'
p4475
g353
sS'03995'
p4476
g74
sS'03992'
p4477
g74
sS'03993'
p4478
g353
sS'03990'
p4479
g74
sS'03991'
p4480
g74
sS'04519'
p4481
g21
sS'04518'
p4482
g21
sS'04513'
p4483
g21
sS'04512'
p4484
g21
sS'04511'
p4485
g21
sS'04510'
p4486
g21
sS'04517'
p4487
g21
sS'04516'
p4488
g21
sS'04515'
p4489
g21
sS'04514'
p4490
g21
sS'00469'
p4491
g304
sS'00468'
p4492
g304
sS'00463'
p4493
g7
sS'00462'
p4494
g7
sS'00461'
p4495
g7
sS'00460'
p4496
g7
sS'00467'
p4497
g304
sS'00466'
p4498
g7
sS'00465'
p4499
g7
sS'00464'
p4500
g7
sS'02649'
p4501
g597
sS'02648'
p4502
g597
sS'02641'
p4503
g597
sS'02640'
p4504
g481
sS'02643'
p4505
g597
sS'02642'
p4506
g481
sS'02645'
p4507
g597
sS'02644'
p4508
g597
sS'02647'
p4509
g597
sS'02646'
p4510
g597
sS'04777'
p4511
g1069
sS'04776'
p4512
g1069
sS'04775'
p4513
g1069
sS'04774'
p4514
g1069
sS'04773'
p4515
g1069
sS'04772'
p4516
g1069
sS'04771'
p4517
g1069
sS'04770'
p4518
g1069
sS'04779'
p4519
g1069
sS'04778'
p4520
g1069
sS'02911'
p4521
g104
sS'02910'
p4522
g104
sS'02913'
p4523
g104
sS'02912'
p4524
g104
sS'02915'
p4525
g104
sS'02914'
p4526
g104
sS'02917'
p4527
g104
sS'02916'
p4528
g104
sS'02919'
p4529
g104
sS'02918'
p4530
g104
sS'01932'
p4531
g397
sS'01933'
p4532
g397
sS'01930'
p4533
g397
sS'01931'
p4534
g397
sS'01936'
p4535
g397
sS'01937'
p4536
g397
sS'01934'
p4537
g397
sS'01935'
p4538
g397
sS'01938'
p4539
g397
sS'01939'
p4540
g397
sS'03206'
p4541
g78
sS'03207'
p4542
g78
sS'03204'
p4543
g78
sS'03205'
p4544
g78
sS'03202'
p4545
g78
sS'03203'
p4546
g78
sS'03200'
p4547
g78
sS'03201'
p4548
g78
sS'03208'
p4549
g78
sS'03209'
p4550
g78
sS'02003'
p4551
g907
sS'02002'
p4552
g907
sS'02001'
p4553
g907
sS'02000'
p4554
g907
sS'02007'
p4555
g907
sS'02006'
p4556
g907
sS'02005'
p4557
g907
sS'02004'
p4558
g907
sS'02009'
p4559
g907
sS'02008'
p4560
g907
sS'02344'
p4561
g403
sS'02345'
p4562
g403
sS'02346'
p4563
g403
sS'02347'
p4564
g403
sS'02340'
p4565
g403
sS'02341'
p4566
g403
sS'02342'
p4567
g403
sS'02343'
p4568
g403
sS'02348'
p4569
g403
sS'02349'
p4570
g403
sS'05587'
p4571
g32
sS'05586'
p4572
g32
sS'05585'
p4573
g32
sS'05584'
p4574
g32
sS'05583'
p4575
g32
sS'05582'
p4576
g32
sS'05581'
p4577
g32
sS'05580'
p4578
g32
sS'05589'
p4579
g32
sS'05588'
p4580
g32
sS'01697'
p4581
g1201
sS'01696'
p4582
g1201
sS'01695'
p4583
g1201
sS'01694'
p4584
g1201
sS'01693'
p4585
g1201
sS'01692'
p4586
g1201
sS'01691'
p4587
g1201
sS'01690'
p4588
g1201
sS'01699'
p4589
g1201
sS'01698'
p4590
g1201
sS'03835'
p4591
g74
sS'03834'
p4592
g74
sS'03837'
p4593
g74
sS'03836'
p4594
g74
sS'03831'
p4595
g74
sS'03830'
p4596
g74
sS'03833'
p4597
g74
sS'03832'
p4598
g74
sS'03839'
p4599
g74
sS'03838'
p4600
g74
sS'05363'
p4601
g56
sS'05362'
p4602
g56
sS'05361'
p4603
g224
sS'05360'
p4604
g224
sS'05367'
p4605
g56
sS'05366'
p4606
g56
sS'05365'
p4607
g56
sS'05364'
p4608
g56
sS'05369'
p4609
g56
sS'05368'
p4610
g56
sS'04188'
p4611
g83
sS'04189'
p4612
g83
sS'04180'
p4613
g83
sS'04181'
p4614
g83
sS'04182'
p4615
g83
sS'04183'
p4616
g83
sS'04184'
p4617
g83
sS'04185'
p4618
g83
sS'04186'
p4619
g83
sS'04187'
p4620
g83
sS'00258'
p4621
g104
sS'00259'
p4622
g104
sS'00254'
p4623
g104
sS'00255'
p4624
g104
sS'00256'
p4625
g104
sS'00257'
p4626
g104
sS'00250'
p4627
g104
sS'00251'
p4628
g104
sS'00252'
p4629
g104
sS'00253'
p4630
g104
sS'00896'
p4631
g117
sS'00897'
p4632
g117
sS'00894'
p4633
g117
sS'00895'
p4634
g117
sS'00892'
p4635
g117
sS'00893'
p4636
g117
sS'00890'
p4637
g117
sS'00891'
p4638
g117
sS'00898'
p4639
g117
sS'00899'
p4640
g117
sS'05114'
p4641
g1201
sS'05115'
p4642
g1201
sS'05116'
p4643
g1201
sS'05117'
p4644
g1201
sS'05110'
p4645
g1201
sS'05111'
p4646
g1201
sS'05112'
p4647
g1201
sS'05113'
p4648
g1201
sS'05118'
p4649
g211
sS'05119'
p4650
g211
sS'04571'
p4651
g276
sS'04570'
p4652
g276
sS'04573'
p4653
g276
sS'04572'
p4654
g276
sS'04575'
p4655
g276
sS'04574'
p4656
g276
sS'04577'
p4657
g276
sS'04576'
p4658
g276
sS'04579'
p4659
g276
sS'04578'
p4660
g276
sS'00401'
p4661
g45
sS'00400'
p4662
g45
sS'00403'
p4663
g45
sS'00402'
p4664
g45
sS'00405'
p4665
g45
sS'00404'
p4666
g45
sS'00407'
p4667
g45
sS'00406'
p4668
g45
sS'00409'
p4669
g45
sS'00408'
p4670
g45
sS'02667'
p4671
g597
sS'02666'
p4672
g597
sS'02665'
p4673
g597
sS'02664'
p4674
g597
sS'02663'
p4675
g597
sS'02662'
p4676
g597
sS'02661'
p4677
g597
sS'02660'
p4678
g597
sS'02669'
p4679
g597
sS'02668'
p4680
g597
sS'04799'
p4681
g1069
sS'04798'
p4682
g1069
sS'04795'
p4683
g1069
sS'04794'
p4684
g1069
sS'04797'
p4685
g1069
sS'04796'
p4686
g1069
sS'04791'
p4687
g1069
sS'04790'
p4688
g1069
sS'04793'
p4689
g1069
sS'04792'
p4690
g1069
sS'01316'
p4691
g1069
sS'01317'
p4692
g1069
sS'01314'
p4693
g1069
sS'01315'
p4694
g1069
sS'01312'
p4695
g1069
sS'01313'
p4696
g1069
sS'01310'
p4697
g838
sS'01311'
p4698
g1069
sS'02937'
p4699
g104
sS'02936'
p4700
g104
sS'02935'
p4701
g104
sS'02934'
p4702
g104
sS'02933'
p4703
g104
sS'02932'
p4704
g104
sS'01318'
p4705
g1069
sS'01319'
p4706
g1069
sS'01918'
p4707
g397
sS'01919'
p4708
g397
sS'01910'
p4709
g397
sS'01911'
p4710
g397
sS'01912'
p4711
g397
sS'01913'
p4712
g397
sS'01914'
p4713
g397
sS'01915'
p4714
g397
sS'01916'
p4715
g397
sS'01917'
p4716
g397
sS'03228'
p4717
g78
sS'03229'
p4718
g78
sS'03224'
p4719
g78
sS'03225'
p4720
g78
sS'03226'
p4721
g78
sS'03227'
p4722
g78
sS'03220'
p4723
g78
sS'03221'
p4724
g78
sS'03222'
p4725
g78
sS'03223'
p4726
g78
sS'05636'
p4727
g129
sS'02939'
p4728
g104
sS'02938'
p4729
g104
sS'02931'
p4730
g104
sS'02930'
p4731
g104
sS'02069'
p4732
g983
sS'02068'
p4733
g983
sS'04329'
p4734
g191
sS'02061'
p4735
g983
sS'02060'
p4736
g983
sS'02063'
p4737
g983
sS'02062'
p4738
g983
sS'02065'
p4739
g983
sS'02064'
p4740
g983
sS'02067'
p4741
g983
sS'02066'
p4742
g983
sS'04898'
p4743
g115
sS'04899'
p4744
g896
sS'04892'
p4745
g115
sS'04893'
p4746
g115
sS'04890'
p4747
g115
sS'04891'
p4748
g115
sS'04896'
p4749
g115
sS'04897'
p4750
g115
sS'04894'
p4751
g115
sS'04895'
p4752
g115
sS'00791'
p4753
g83
sS'00790'
p4754
g83
sS'00793'
p4755
g83
sS'00792'
p4756
g83
sS'00795'
p4757
g83
sS'00794'
p4758
g83
sS'00797'
p4759
g83
sS'00796'
p4760
g83
sS'00799'
p4761
g83
sS'00798'
p4762
g83
sS'02322'
p4763
g59
sS'02323'
p4764
g59
sS'02320'
p4765
g59
sS'02321'
p4766
g59
sS'02326'
p4767
g59
sS'02327'
p4768
g59
sS'02324'
p4769
g59
sS'02325'
p4770
g59
sS'02328'
p4771
g59
sS'02329'
p4772
g59
sS'03929'
p4773
g74
sS'03928'
p4774
g74
sS'04452'
p4775
g21
sS'04453'
p4776
g21
sS'04450'
p4777
g21
sS'02498'
p4778
g117
sS'02499'
p4779
g117
sS'04451'
p4780
g21
sS'02490'
p4781
g117
sS'02491'
p4782
g117
sS'02492'
p4783
g117
sS'02493'
p4784
g117
sS'02494'
p4785
g117
sS'02495'
p4786
g117
sS'02496'
p4787
g117
sS'02497'
p4788
g117
sS'04454'
p4789
g21
sS'04107'
p4790
g83
sS'05569'
p4791
g32
sS'05568'
p4792
g32
sS'05565'
p4793
g32
sS'05564'
p4794
g32
sS'05567'
p4795
g32
sS'05566'
p4796
g32
sS'05561'
p4797
g3
sS'05560'
p4798
g3
sS'05563'
p4799
g3
sS'05562'
p4800
g3
sS'01679'
p4801
g1201
sS'01678'
p4802
g1201
sS'01675'
p4803
g1201
sS'01674'
p4804
g1201
sS'01677'
p4805
g1201
sS'01676'
p4806
g1201
sS'01671'
p4807
g1201
sS'01670'
p4808
g1201
sS'01673'
p4809
g1201
sS'01672'
p4810
g1201
sS'03813'
p4811
g74
sS'03812'
p4812
g74
sS'03811'
p4813
g74
sS'03810'
p4814
g74
sS'03817'
p4815
g74
sS'03816'
p4816
g74
sS'03815'
p4817
g74
sS'03814'
p4818
g74
sS'03819'
p4819
g74
sS'03818'
p4820
g74
sS'05309'
p4821
g1150
sS'05308'
p4822
g1150
sS'05301'
p4823
g1150
sS'05300'
p4824
g1150
sS'05303'
p4825
g1150
sS'05302'
p4826
g1150
sS'05305'
p4827
g1150
sS'05304'
p4828
g1150
sS'05307'
p4829
g1150
sS'05306'
p4830
g1150
sS'00238'
p4831
g1150
sS'00239'
p4832
g1150
sS'00232'
p4833
g1150
sS'00233'
p4834
g1150
sS'00230'
p4835
g1150
sS'00231'
p4836
g1150
sS'00236'
p4837
g1150
sS'00237'
p4838
g1150
sS'00234'
p4839
g1150
sS'00235'
p4840
g1150
sS'05172'
p4841
g983
sS'05173'
p4842
g983
sS'05170'
p4843
g983
sS'05171'
p4844
g983
sS'05176'
p4845
g983
sS'05177'
p4846
g983
sS'05174'
p4847
g983
sS'05175'
p4848
g983
sS'05178'
p4849
g7
sS'05179'
p4850
g7
sS'04229'
p4851
g191
sS'04228'
p4852
g191
sS'04559'
p4853
g280
sS'04558'
p4854
g280
sS'04557'
p4855
g280
sS'04556'
p4856
g280
sS'04227'
p4857
g191
sS'04554'
p4858
g280
sS'04221'
p4859
g191
sS'04552'
p4860
g280
sS'04551'
p4861
g280
sS'04550'
p4862
g280
sS'00429'
p4863
g397
sS'00428'
p4864
g397
sS'00427'
p4865
g397
sS'00426'
p4866
g397
sS'00425'
p4867
g397
sS'00424'
p4868
g397
sS'00423'
p4869
g397
sS'00422'
p4870
g397
sS'00421'
p4871
g397
sS'00420'
p4872
g397
sS'02689'
p4873
g597
sS'02688'
p4874
g597
sS'02685'
p4875
g597
sS'02684'
p4876
g597
sS'02687'
p4877
g597
sS'02686'
p4878
g597
sS'02681'
p4879
g597
sS'02680'
p4880
g597
sS'02683'
p4881
g597
sS'02682'
p4882
g597
sS'05796'
p4883
g397
sS'05797'
p4884
g397
sS'05794'
p4885
g397
sS'05795'
p4886
g397
sS'05792'
p4887
g397
sS'05793'
p4888
g397
sS'05790'
p4889
g397
sS'05791'
p4890
g397
sS'05798'
p4891
g397
sS'05799'
p4892
g397
sS'01086'
p4893
g353
sS'01087'
p4894
g353
sS'01084'
p4895
g353
sS'01085'
p4896
g353
sS'01082'
p4897
g353
sS'01083'
p4898
g353
sS'01080'
p4899
g353
sS'01081'
p4900
g353
sS'01088'
p4901
g353
sS'01089'
p4902
g353
sS'03798'
p4903
g74
sS'03799'
p4904
g74
sS'03028'
p4905
g78
sS'03029'
p4906
g78
sS'03794'
p4907
g74
sS'03027'
p4908
g78
sS'03796'
p4909
g74
sS'03025'
p4910
g78
sS'03022'
p4911
g78
sS'03023'
p4912
g78
sS'03792'
p4913
g74
sS'03793'
p4914
g74
sS'02285'
p4915
g59
sS'05069'
p4916
g784
sS'01338'
p4917
g896
sS'01339'
p4918
g668
sS'01334'
p4919
g115
sS'03457'
p4920
g224
sS'01336'
p4921
g896
sS'01337'
p4922
g896
sS'01330'
p4923
g1066
sS'01331'
p4924
g1066
sS'01332'
p4925
g115
sS'03456'
p4926
g224
sS'03248'
p4927
g224
sS'03249'
p4928
g224
sS'03247'
p4929
g224
sS'03458'
p4930
g224
sS'00531'
p4931
g403
sS'02047'
p4932
g983
sS'02046'
p4933
g983
sS'02045'
p4934
g983
sS'02044'
p4935
g983
sS'02043'
p4936
g983
sS'02042'
p4937
g983
sS'02041'
p4938
g983
sS'05717'
p4939
g211
sS'05246'
p4940
g403
sS'02049'
p4941
g983
sS'02048'
p4942
g983
sS'05247'
p4943
g403
sS'05240'
p4944
g403
sS'00168'
p4945
g597
sS'05241'
p4946
g403
sS'00169'
p4947
g597
sS'05242'
p4948
g403
sS'05243'
p4949
g403
sS'02308'
p4950
g59
sS'02309'
p4951
g59
sS'03588'
p4952
g56
sS'02300'
p4953
g59
sS'02301'
p4954
g59
sS'02302'
p4955
g59
sS'02303'
p4956
g59
sS'02304'
p4957
g59
sS'02305'
p4958
g59
sS'02306'
p4959
g59
sS'02307'
p4960
g59
sS'01536'
p4961
g784
sS'01537'
p4962
g784
sS'01534'
p4963
g784
sS'01535'
p4964
g784
sS'01532'
p4965
g784
sS'01533'
p4966
g784
sS'01530'
p4967
g784
sS'01531'
p4968
g784
sS'01538'
p4969
g784
sS'01539'
p4970
g784
sS'05099'
p4971
g129
sS'05098'
p4972
g129
sS'05549'
p4973
g3
sS'05548'
p4974
g3
sS'05091'
p4975
g129
sS'05542'
p4976
g3
sS'05093'
p4977
g129
sS'05540'
p4978
g3
sS'05095'
p4979
g129
sS'05094'
p4980
g129
sS'05097'
p4981
g129
sS'05096'
p4982
g129
sS'01659'
p4983
g1201
sS'01658'
p4984
g1201
sS'01653'
p4985
g1201
sS'01652'
p4986
g1201
sS'01651'
p4987
g1201
sS'01650'
p4988
g1201
sS'01657'
p4989
g1201
sS'01656'
p4990
g1201
sS'01655'
p4991
g1201
sS'01654'
p4992
g1201
sS'03879'
p4993
g74
sS'03878'
p4994
g74
sS'03871'
p4995
g74
sS'03870'
p4996
g74
sS'03873'
p4997
g74
sS'03872'
p4998
g74
sS'03875'
p4999
g74
sS'03874'
p5000
g74
sS'03877'
p5001
g74
sS'03876'
p5002
g74
sS'05327'
p5003
g78
sS'05326'
p5004
g104
sS'05325'
p5005
g104
sS'05324'
p5006
g104
sS'05323'
p5007
g104
sS'05322'
p5008
g104
sS'05321'
p5009
g104
sS'05320'
p5010
g104
sS'05329'
p5011
g78
sS'05328'
p5012
g78
sS'04056'
p5013
g83
sS'04057'
p5014
g83
sS'04054'
p5015
g83
sS'04055'
p5016
g83
sS'04052'
p5017
g83
sS'04053'
p5018
g83
sS'04050'
p5019
g83
sS'04051'
p5020
g83
sS'04058'
p5021
g83
sS'04059'
p5022
g83
sS'00210'
p5023
g1150
sS'00211'
p5024
g1150
sS'00212'
p5025
g1150
sS'00213'
p5026
g1150
sS'00214'
p5027
g1150
sS'00215'
p5028
g1150
sS'00216'
p5029
g1150
sS'00217'
p5030
g1150
sS'00218'
p5031
g1150
sS'00219'
p5032
g1150
sS'03499'
p5033
g56
sS'03498'
p5034
g56
sS'03497'
p5035
g56
sS'03496'
p5036
g224
sS'03495'
p5037
g224
sS'03494'
p5038
g224
sS'03493'
p5039
g224
sS'03492'
p5040
g224
sS'03491'
p5041
g224
sS'03490'
p5042
g224
sS'02519'
p5043
g117
sS'02518'
p5044
g117
sS'02515'
p5045
g117
sS'02514'
p5046
g117
sS'02517'
p5047
g117
sS'02516'
p5048
g117
sS'02511'
p5049
g117
sS'02510'
p5050
g117
sS'02513'
p5051
g117
sS'02512'
p5052
g117
sS'05158'
p5053
g397
sS'05159'
p5054
g397
sS'05150'
p5055
g397
sS'05151'
p5056
g397
sS'05152'
p5057
g397
sS'05153'
p5058
g397
sS'05154'
p5059
g397
sS'05155'
p5060
g397
sS'05156'
p5061
g397
sS'05157'
p5062
g397
sS'04209'
p5063
g83
sS'04208'
p5064
g191
sS'04203'
p5065
g83
sS'04202'
p5066
g83
sS'04201'
p5067
g83
sS'04200'
p5068
g83
sS'04207'
p5069
g191
sS'04206'
p5070
g83
sS'04205'
p5071
g83
sS'04204'
p5072
g83
sS'03004'
p5073
g78
sS'03005'
p5074
g78
sS'03006'
p5075
g78
sS'03007'
p5076
g78
sS'03000'
p5077
g78
sS'03001'
p5078
g78
sS'03002'
p5079
g78
sS'03003'
p5080
g78
sS'03008'
p5081
g78
sS'03009'
p5082
g78
sS'01358'
p5083
g492
sS'01359'
p5084
g492
sS'01352'
p5085
g492
sS'01353'
p5086
g492
sS'01350'
p5087
g492
sS'01351'
p5088
g492
sS'01356'
p5089
g492
sS'01357'
p5090
g492
sS'01354'
p5091
g492
sS'01355'
p5092
g492
sS'03260'
p5093
g224
sS'03261'
p5094
g224
sS'03262'
p5095
g224
sS'03263'
p5096
g224
sS'03264'
p5097
g224
sS'03265'
p5098
g224
sS'03266'
p5099
g224
sS'03267'
p5100
g224
sS'03268'
p5101
g224
sS'03269'
p5102
g224
sS'00005'
p5103
g304
sS'00004'
p5104
g304
sS'00007'
p5105
g304
sS'00006'
p5106
g304
sS'00001'
p5107
g304
sS'00003'
p5108
g304
sS'00002'
p5109
g304
sS'00009'
p5110
g304
sS'00008'
p5111
g304
sS'04858'
p5112
g1066
sS'04859'
p5113
g1066
sS'04856'
p5114
g1066
sS'04857'
p5115
g1066
sS'04854'
p5116
g1066
sS'04855'
p5117
g1066
sS'04852'
p5118
g1066
sS'04853'
p5119
g1066
sS'04850'
p5120
g1066
sS'04851'
p5121
g1066
sS'01518'
p5122
g784
sS'01519'
p5123
g784
sS'01514'
p5124
g32
sS'01515'
p5125
g32
sS'01516'
p5126
g32
sS'01517'
p5127
g784
sS'01510'
p5128
g32
sS'01511'
p5129
g32
sS'01512'
p5130
g32
sS'01513'
p5131
g32
sS'05521'
p5132
g3
sS'05520'
p5133
g3
sS'05523'
p5134
g3
sS'05522'
p5135
g3
sS'05525'
p5136
g3
sS'05524'
p5137
g3
sS'05527'
p5138
g3
sS'05526'
p5139
g3
sS'05529'
p5140
g3
sS'05528'
p5141
g3
sS'01631'
p5142
g1201
sS'01630'
p5143
g1201
sS'01633'
p5144
g1201
sS'01632'
p5145
g1201
sS'01635'
p5146
g1201
sS'01634'
p5147
g1201
sS'01637'
p5148
g1201
sS'01636'
p5149
g1201
sS'01639'
p5150
g1201
sS'01638'
p5151
g1201
sS'03857'
p5152
g74
sS'03856'
p5153
g74
sS'03855'
p5154
g74
sS'03854'
p5155
g74
sS'03853'
p5156
g74
sS'03852'
p5157
g74
sS'03851'
p5158
g74
sS'03850'
p5159
g74
sS'03859'
p5160
g74
sS'03858'
p5161
g74
sS'01189'
p5162
g189
sS'01188'
p5163
g189
sS'01187'
p5164
g189
sS'01186'
p5165
g189
sS'01185'
p5166
g189
sS'01184'
p5167
g189
sS'01183'
p5168
g189
sS'01182'
p5169
g189
sS'01181'
p5170
g189
sS'01180'
p5171
g189
sS'04690'
p5172
g235
sS'04691'
p5173
g235
sS'04692'
p5174
g838
sS'04693'
p5175
g838
sS'04694'
p5176
g838
sS'04695'
p5177
g838
sS'04696'
p5178
g838
sS'04697'
p5179
g838
sS'04698'
p5180
g838
sS'04699'
p5181
g838
sS'00580'
p5182
g481
sS'00581'
p5183
g481
sS'00582'
p5184
g481
sS'00583'
p5185
g481
sS'00584'
p5186
g481
sS'00585'
p5187
g481
sS'00586'
p5188
g481
sS'00587'
p5189
g481
sS'00588'
p5190
g481
sS'00589'
p5191
g481
sS'02726'
p5192
g1150
sS'02727'
p5193
g1150
sS'02724'
p5194
g1150
sS'02725'
p5195
g1150
sS'02722'
p5196
g1150
sS'02723'
p5197
g1150
sS'02720'
p5198
g1150
sS'02721'
p5199
g1150
sS'02728'
p5200
g1150
sS'02729'
p5201
g1150
sS'04078'
p5202
g83
sS'04079'
p5203
g83
sS'04074'
p5204
g83
sS'04075'
p5205
g83
sS'04076'
p5206
g83
sS'04077'
p5207
g83
sS'04070'
p5208
g83
sS'04071'
p5209
g83
sS'04072'
p5210
g83
sS'04073'
p5211
g83
sS'02539'
p5212
g117
sS'02538'
p5213
g117
sS'02533'
p5214
g117
sS'02532'
p5215
g117
sS'02531'
p5216
g117
sS'02530'
p5217
g117
sS'02537'
p5218
g117
sS'02536'
p5219
g117
sS'02535'
p5220
g117
sS'02534'
p5221
g117
sS'03787'
p5222
g74
sS'03786'
p5223
g74
sS'03789'
p5224
g74
sS'03788'
p5225
g74
sS'04261'
p5226
g191
sS'04260'
p5227
g191
sS'04263'
p5228
g191
sS'04262'
p5229
g191
sS'04265'
p5230
g191
sS'04264'
p5231
g191
sS'04267'
p5232
g191
sS'04266'
p5233
g191
sS'04269'
p5234
g191
sS'04268'
p5235
g191
sS'03062'
p5236
g78
sS'03063'
p5237
g78
sS'03060'
p5238
g78
sS'03061'
p5239
g78
sS'03066'
p5240
g78
sS'03067'
p5241
g78
sS'03064'
p5242
g78
sS'03065'
p5243
g78
sS'03068'
p5244
g78
sS'03069'
p5245
g78
sS'01370'
p5246
g492
sS'01371'
p5247
g492
sS'01372'
p5248
g492
sS'01373'
p5249
g492
sS'01374'
p5250
g492
sS'01375'
p5251
g492
sS'01376'
p5252
g492
sS'01377'
p5253
g492
sS'01378'
p5254
g492
sS'01379'
p5255
g492
sS'03288'
p5256
g224
sS'03289'
p5257
g224
sS'03286'
p5258
g224
sS'03287'
p5259
g224
sS'03284'
p5260
g224
sS'03285'
p5261
g224
sS'03282'
p5262
g224
sS'03283'
p5263
g224
sS'03280'
p5264
g224
sS'03281'
p5265
g224
sS'05626'
p5266
g784
sS'05627'
p5267
g784
sS'05196'
p5268
g304
sS'04485'
p5269
g21
sS'04484'
p5270
g21
sS'04487'
p5271
g21
sS'04486'
p5272
g21
sS'04481'
p5273
g21
sS'04480'
p5274
g21
sS'04483'
p5275
g21
sS'02929'
p5276
g104
sS'05190'
p5277
g7
sS'04489'
p5278
g21
sS'04488'
p5279
g21
sS'05191'
p5280
g304
sS'00395'
p5281
g211
sS'00394'
p5282
g211
sS'00397'
p5283
g45
sS'00396'
p5284
g211
sS'00391'
p5285
g211
sS'05192'
p5286
g304
sS'00393'
p5287
g211
sS'00392'
p5288
g211
sS'05193'
p5289
g304
sS'00399'
p5290
g45
sS'00398'
p5291
g45
sS'02883'
p5292
g104
sS'02882'
p5293
g104
sS'02881'
p5294
g104
sS'02880'
p5295
g104
sS'02887'
p5296
g104
sS'02886'
p5297
g104
sS'02885'
p5298
g104
sS'02884'
p5299
g104
sS'02889'
p5300
g104
sS'02888'
p5301
g104
sS'02922'
p5302
g104
sS'02923'
p5303
g104
sS'05040'
p5304
g784
sS'00023'
p5305
g59
sS'00022'
p5306
g59
sS'00021'
p5307
g59
sS'00020'
p5308
g59
sS'00027'
p5309
g59
sS'00026'
p5310
g59
sS'00025'
p5311
g59
sS'00024'
p5312
g59
sS'00029'
p5313
g59
sS'00028'
p5314
g59
sS'04874'
p5315
g115
sS'04875'
p5316
g115
sS'02089'
p5317
g7
sS'02088'
p5318
g7
sS'04870'
p5319
g115
sS'04871'
p5320
g115
sS'04872'
p5321
g115
sS'04873'
p5322
g115
sS'02083'
p5323
g983
sS'02082'
p5324
g983
sS'02081'
p5325
g983
sS'02080'
p5326
g983
sS'02087'
p5327
g7
sS'02086'
p5328
g7
sS'02085'
p5329
g983
sS'02084'
p5330
g983
sS'01578'
p5331
g129
sS'01579'
p5332
g129
sS'01572'
p5333
g784
sS'01573'
p5334
g784
sS'01570'
p5335
g784
sS'01571'
p5336
g784
sS'01576'
p5337
g129
sS'01577'
p5338
g129
sS'01574'
p5339
g129
sS'01575'
p5340
g129
sS'05059'
p5341
g784
sS'05058'
p5342
g784
sS'05509'
p5343
g492
sS'05508'
p5344
g492
sS'05055'
p5345
g784
sS'05054'
p5346
g784
sS'05057'
p5347
g784
sS'05056'
p5348
g784
sS'05051'
p5349
g784
sS'05050'
p5350
g784
sS'05053'
p5351
g784
sS'04462'
p5352
g21
sS'01619'
p5353
g1201
sS'01618'
p5354
g1201
sS'01617'
p5355
g1201
sS'01616'
p5356
g1201
sS'01615'
p5357
g1201
sS'01614'
p5358
g1201
sS'01613'
p5359
g129
sS'01612'
p5360
g129
sS'01611'
p5361
g129
sS'01610'
p5362
g129
sS'01286'
p5363
g235
sS'01287'
p5364
g235
sS'00376'
p5365
g129
sS'05123'
p5366
g211
sS'00625'
p5367
g1150
sS'00624'
p5368
g1150
sS'00627'
p5369
g1150
sS'00626'
p5370
g1150
sS'00621'
p5371
g597
sS'00620'
p5372
g597
sS'00623'
p5373
g1150
sS'00622'
p5374
g1150
sS'01288'
p5375
g235
sS'00629'
p5376
g1150
sS'00628'
p5377
g1150
sS'01289'
p5378
g235
sS'00370'
p5379
g32
sS'04678'
p5380
g235
sS'04679'
p5381
g235
sS'04676'
p5382
g235
sS'04677'
p5383
g235
sS'04674'
p5384
g235
sS'04675'
p5385
g235
sS'04672'
p5386
g235
sS'04673'
p5387
g235
sS'04670'
p5388
g235
sS'04671'
p5389
g235
sS'00568'
p5390
g117
sS'00569'
p5391
g117
sS'00566'
p5392
g117
sS'00567'
p5393
g117
sS'00564'
p5394
g117
sS'00565'
p5395
g117
sS'00562'
p5396
g117
sS'00563'
p5397
g117
sS'00560'
p5398
g117
sS'00561'
p5399
g117
sS'02708'
p5400
g1150
sS'02709'
p5401
g1150
sS'02704'
p5402
g597
sS'02705'
p5403
g597
sS'02706'
p5404
g1150
sS'02707'
p5405
g1150
sS'02700'
p5406
g597
sS'02701'
p5407
g597
sS'02702'
p5408
g597
sS'02703'
p5409
g597
sS'04018'
p5410
g353
sS'04019'
p5411
g353
sS'04012'
p5412
g353
sS'04013'
p5413
g353
sS'04010'
p5414
g353
sS'04011'
p5415
g353
sS'04016'
p5416
g353
sS'04017'
p5417
g353
sS'04014'
p5418
g353
sS'04015'
p5419
g353
sS'03545'
p5420
g56
sS'03544'
p5421
g56
sS'03547'
p5422
g56
sS'03546'
p5423
g56
sS'03541'
p5424
g56
sS'03540'
p5425
g56
sS'03543'
p5426
g56
sS'03542'
p5427
g56
sS'03549'
p5428
g56
sS'03548'
p5429
g56
sS'02146'
p5430
g304
sS'02147'
p5431
g304
sS'02144'
p5432
g304
sS'02145'
p5433
g304
sS'02142'
p5434
g304
sS'02143'
p5435
g304
sS'02140'
p5436
g304
sS'02141'
p5437
g304
sS'02148'
p5438
g304
sS'02149'
p5439
g304
sS'00818'
p5440
g191
sS'00819'
p5441
g191
sS'00816'
p5442
g191
sS'00817'
p5443
g191
sS'00814'
p5444
g191
sS'00815'
p5445
g191
sS'00812'
p5446
g191
sS'00813'
p5447
g191
sS'00810'
p5448
g191
sS'00811'
p5449
g191
sS'02551'
p5450
g117
sS'02550'
p5451
g117
sS'02553'
p5452
g117
sS'02552'
p5453
g117
sS'02555'
p5454
g117
sS'02554'
p5455
g117
sS'02557'
p5456
g481
sS'02556'
p5457
g117
sS'02559'
p5458
g481
sS'02558'
p5459
g481
sS'00489'
p5460
g59
sS'03665'
p5461
g56
sS'03668'
p5462
g56
sS'03669'
p5463
g56
sS'05266'
p5464
g117
sS'05267'
p5465
g481
sS'05264'
p5466
g117
sS'05265'
p5467
g117
sS'05262'
p5468
g117
sS'05263'
p5469
g117
sS'05260'
p5470
g117
sS'05261'
p5471
g117
sS'05268'
p5472
g481
sS'05269'
p5473
g481
sS'02298'
p5474
g59
sS'02299'
p5475
g59
sS'04249'
p5476
g191
sS'04248'
p5477
g191
sS'04247'
p5478
g191
sS'04246'
p5479
g191
sS'04245'
p5480
g191
sS'04244'
p5481
g191
sS'04243'
p5482
g191
sS'04242'
p5483
g191
sS'04241'
p5484
g191
sS'04240'
p5485
g191
sS'03048'
p5486
g78
sS'03049'
p5487
g78
sS'03738'
p5488
g56
sS'03739'
p5489
g56
sS'03736'
p5490
g56
sS'03041'
p5491
g78
sS'03734'
p5492
g56
sS'03735'
p5493
g56
sS'03044'
p5494
g78
sS'03045'
p5495
g78
sS'03730'
p5496
g56
sS'03047'
p5497
g78
sS'02292'
p5498
g59
sS'02293'
p5499
g59
sS'01398'
p5500
g3
sS'01399'
p5501
g3
sS'01396'
p5502
g3
sS'01397'
p5503
g3
sS'01394'
p5504
g3
sS'01395'
p5505
g3
sS'01392'
p5506
g3
sS'01393'
p5507
g3
sS'01390'
p5508
g3
sS'01391'
p5509
g3
sS'04104'
p5510
g83
sS'03444'
p5511
g224
sS'03445'
p5512
g224
sS'03114'
p5513
g78
sS'03115'
p5514
g78
sS'04105'
p5515
g83
sS'03440'
p5516
g224
sS'03441'
p5517
g224
sS'03110'
p5518
g78
sS'03111'
p5519
g78
sS'02802'
p5520
g104
sS'04088'
p5521
g83
sS'05238'
p5522
g403
sS'00049'
p5523
g117
sS'00048'
p5524
g117
sS'00041'
p5525
g59
sS'00040'
p5526
g59
sS'00043'
p5527
g59
sS'00042'
p5528
g59
sS'00045'
p5529
g59
sS'00044'
p5530
g59
sS'00047'
p5531
g403
sS'00046'
p5532
g59
sS'04812'
p5533
g1069
sS'04813'
p5534
g1069
sS'04810'
p5535
g1069
sS'04811'
p5536
g1069
sS'04816'
p5537
g1069
sS'04817'
p5538
g1069
sS'04814'
p5539
g1069
sS'04815'
p5540
g1069
sS'04818'
p5541
g1069
sS'04819'
p5542
g1069
sS'05233'
p5543
g403
sS'05232'
p5544
g403
sS'05235'
p5545
g403
sS'05234'
p5546
g403
sS'05237'
p5547
g403
sS'05236'
p5548
g403
sS'01550'
p5549
g784
sS'01551'
p5550
g784
sS'01804'
p5551
g45
sS'01805'
p5552
g45
sS'01554'
p5553
g784
sS'01803'
p5554
g45
sS'01556'
p5555
g784
sS'01557'
p5556
g784
sS'01558'
p5557
g784
sS'01559'
p5558
g784
sS'01808'
p5559
g45
sS'01809'
p5560
g45
sS'05079'
p5561
g129
sS'05078'
p5562
g129
sS'05073'
p5563
g129
sS'05072'
p5564
g784
sS'05071'
p5565
g784
sS'05070'
p5566
g784
sS'05077'
p5567
g129
sS'05076'
p5568
g129
sS'05075'
p5569
g129
sS'05074'
p5570
g129
sS'03899'
p5571
g74
sS'03898'
p5572
g74
sS'03893'
p5573
g74
sS'03892'
p5574
g74
sS'03891'
p5575
g74
sS'02928'
p5576
g104
sS'03897'
p5577
g74
sS'03896'
p5578
g74
sS'03895'
p5579
g74
sS'03894'
p5580
g74
sS'00603'
p5581
g597
sS'00602'
p5582
g597
sS'00601'
p5583
g597
sS'00600'
p5584
g597
sS'00607'
p5585
g597
sS'00606'
p5586
g597
sS'00605'
p5587
g597
sS'00604'
p5588
g597
sS'00609'
p5589
g597
sS'00608'
p5590
g597
sS'04654'
p5591
g235
sS'04655'
p5592
g235
sS'04656'
p5593
g235
sS'04657'
p5594
g235
sS'04650'
p5595
g235
sS'04651'
p5596
g235
sS'04652'
p5597
g235
sS'04653'
p5598
g235
sS'04658'
p5599
g235
sS'04659'
p5600
g235
sS'00544'
p5601
g403
sS'00545'
p5602
g403
sS'04388'
p5603
g189
sS'04389'
p5604
g189
sS'00540'
p5605
g403
sS'00541'
p5606
g403
sS'00542'
p5607
g403
sS'00543'
p5608
g403
sS'04382'
p5609
g189
sS'04383'
p5610
g189
sS'04380'
p5611
g189
sS'04381'
p5612
g189
sS'04386'
p5613
g189
sS'04387'
p5614
g189
sS'04384'
p5615
g189
sS'04385'
p5616
g189
sS'05381'
p5617
g74
sS'05380'
p5618
g74
sS'05383'
p5619
g74
sS'05382'
p5620
g74
sS'05385'
p5621
g74
sS'05384'
p5622
g74
sS'05387'
p5623
g353
sS'05386'
p5624
g74
sS'02762'
p5625
g104
sS'02763'
p5626
g104
sS'02760'
p5627
g104
sS'02761'
p5628
g104
sS'02766'
p5629
g104
sS'02767'
p5630
g104
sS'02764'
p5631
g104
sS'02765'
p5632
g104
sS'04030'
p5633
g353
sS'04031'
p5634
g353
sS'04032'
p5635
g353
sS'04033'
p5636
g353
sS'04034'
p5637
g353
sS'04035'
p5638
g353
sS'04036'
p5639
g353
sS'04037'
p5640
g1831
sS'04038'
p5641
g1831
sS'04039'
p5642
g1831
sS'03387'
p5643
g224
sS'03386'
p5644
g224
sS'03385'
p5645
g224
sS'03384'
p5646
g224
sS'03383'
p5647
g224
sS'03382'
p5648
g224
sS'03381'
p5649
g224
sS'03380'
p5650
g224
sS'03389'
p5651
g224
sS'03388'
p5652
g224
sS'01235'
p5653
g280
sS'01234'
p5654
g280
sS'01237'
p5655
g280
sS'01236'
p5656
g280
sS'01231'
p5657
g280
sS'01230'
p5658
g21
sS'01233'
p5659
g280
sS'01232'
p5660
g280
sS'01239'
p5661
g280
sS'01238'
p5662
g280
sS'03563'
p5663
g56
sS'03562'
p5664
g56
sS'03561'
p5665
g56
sS'03560'
p5666
g56
sS'03567'
p5667
g56
sS'03566'
p5668
g56
sS'03565'
p5669
g56
sS'03564'
p5670
g56
sS'03569'
p5671
g56
sS'03568'
p5672
g56
sS'02168'
p5673
g304
sS'02169'
p5674
g304
sS'02164'
p5675
g304
sS'02165'
p5676
g304
sS'02166'
p5677
g304
sS'02167'
p5678
g304
sS'02160'
p5679
g304
sS'02161'
p5680
g304
sS'02162'
p5681
g304
sS'02163'
p5682
g304
sS'00834'
p5683
g191
sS'00835'
p5684
g191
sS'00836'
p5685
g191
sS'00837'
p5686
g191
sS'00830'
p5687
g191
sS'00831'
p5688
g191
sS'00832'
p5689
g191
sS'00833'
p5690
g191
sS'00838'
p5691
g191
sS'00839'
p5692
g189
sS'02579'
p5693
g481
sS'02578'
p5694
g481
sS'02577'
p5695
g481
sS'02576'
p5696
g481
sS'02575'
p5697
g481
sS'02574'
p5698
g481
sS'02573'
p5699
g481
sS'02572'
p5700
g481
sS'02571'
p5701
g481
sS'02570'
p5702
g481
sS'05248'
p5703
g403
sS'05249'
p5704
g403
sS'05718'
p5705
g211
sS'05719'
p5706
g211
sS'05716'
p5707
g211
sS'05245'
p5708
g403
sS'05714'
p5709
g211
sS'05715'
p5710
g211
sS'05712'
p5711
g211
sS'05713'
p5712
g211
sS'05710'
p5713
g211
sS'05711'
p5714
g211
sS'01008'
p5715
g56
sS'01009'
p5716
g56
sS'01006'
p5717
g56
sS'01007'
p5718
g56
sS'01004'
p5719
g56
sS'01005'
p5720
g56
sS'01002'
p5721
g56
sS'01003'
p5722
g56
sS'01000'
p5723
g56
sS'01001'
p5724
g56
sS'03714'
p5725
g56
sS'03715'
p5726
g56
sS'03716'
p5727
g56
sS'03717'
p5728
g56
sS'03710'
p5729
g56
sS'03711'
p5730
g56
sS'03712'
p5731
g56
sS'03713'
p5732
g56
sS'03718'
p5733
g56
sS'03719'
p5734
g56
sS'00067'
p5735
g403
sS'00066'
p5736
g403
sS'00065'
p5737
g403
sS'00064'
p5738
g403
sS'00063'
p5739
g403
sS'00062'
p5740
g403
sS'00061'
p5741
g403
sS'00060'
p5742
g403
sS'00069'
p5743
g403
sS'00068'
p5744
g403
sS'04838'
p5745
g1066
sS'04839'
p5746
g1066
sS'04830'
p5747
g1066
sS'04831'
p5748
g1066
sS'04832'
p5749
g1066
sS'04833'
p5750
g1066
sS'04834'
p5751
g1066
sS'04835'
p5752
g1066
sS'04836'
p5753
g1066
sS'04837'
p5754
g1066
sS'04225'
p5755
g191
sS'04224'
p5756
g191
sS'04555'
p5757
g280
sS'04226'
p5758
g191
sS'04553'
p5759
g280
sS'04220'
p5760
g191
sS'00073'
p5761
g117
sS'04223'
p5762
g191
sS'04222'
p5763
g191
sS'00079'
p5764
g117
sS'01828'
p5765
g45
sS'01829'
p5766
g45
sS'01824'
p5767
g45
sS'01825'
p5768
g45
sS'01826'
p5769
g45
sS'01827'
p5770
g45
sS'01820'
p5771
g45
sS'01821'
p5772
g45
sS'01822'
p5773
g45
sS'01823'
p5774
g45
sS'00993'
p5775
g224
sS'00992'
p5776
g224
sS'00991'
p5777
g224
sS'00990'
p5778
g224
sS'00997'
p5779
g56
sS'00996'
p5780
g224
sS'00995'
p5781
g224
sS'00994'
p5782
g224
sS'00999'
p5783
g56
sS'00998'
p5784
g56
sS'00669'
p5785
g78
sS'00668'
p5786
g78
sS'00667'
p5787
g78
sS'00666'
p5788
g78
sS'05011'
p5789
g32
sS'05010'
p5790
g32
sS'05013'
p5791
g32
sS'05012'
p5792
g32
sS'05015'
p5793
g32
sS'05014'
p5794
g32
sS'05017'
p5795
g32
sS'05016'
p5796
g32
sS'05019'
p5797
g32
sS'05018'
p5798
g32
sS'02290'
p5799
g59
sS'02291'
p5800
g59
sS'02296'
p5801
g59
sS'02297'
p5802
g59
sS'02294'
p5803
g59
sS'02295'
p5804
g59
sS'04632'
p5805
g186
sS'04633'
p5806
g186
sS'04630'
p5807
g186
sS'04631'
p5808
g186
sS'04636'
p5809
g186
sS'04637'
p5810
g186
sS'04634'
p5811
g186
sS'04635'
p5812
g186
sS'04638'
p5813
g186
sS'04639'
p5814
g186
sS'00522'
p5815
g403
sS'00523'
p5816
g403
sS'00520'
p5817
g403
sS'00521'
p5818
g403
sS'00526'
p5819
g403
sS'00527'
p5820
g403
sS'00524'
p5821
g403
sS'00525'
p5822
g403
sS'00528'
p5823
g403
sS'00529'
p5824
g403
sS'02740'
p5825
g1150
sS'02741'
p5826
g1150
sS'02742'
p5827
g104
sS'02743'
p5828
g104
sS'02744'
p5829
g104
sS'02745'
p5830
g104
sS'02746'
p5831
g104
sS'02747'
p5832
g104
sS'02748'
p5833
g104
sS'02749'
p5834
g104
sS'00298'
p5835
g78
sS'00299'
p5836
g78
sS'00290'
p5837
g78
sS'00291'
p5838
g78
sS'00292'
p5839
g78
sS'00293'
p5840
g78
sS'00294'
p5841
g78
sS'00295'
p5842
g78
sS'00296'
p5843
g78
sS'00297'
p5844
g78
sS'03369'
p5845
g224
sS'03368'
p5846
g224
sS'03365'
p5847
g224
sS'03364'
p5848
g224
sS'03367'
p5849
g224
sS'03366'
p5850
g224
sS'03361'
p5851
g224
sS'03360'
p5852
g224
sS'03363'
p5853
g224
sS'03362'
p5854
g224
sS'01213'
p5855
g21
sS'01212'
p5856
g189
sS'01211'
p5857
g189
sS'01210'
p5858
g189
sS'01217'
p5859
g21
sS'01216'
p5860
g21
sS'01215'
p5861
g21
sS'01214'
p5862
g21
sS'01219'
p5863
g21
sS'01218'
p5864
g21
sS'03509'
p5865
g56
sS'03508'
p5866
g56
sS'03501'
p5867
g56
sS'03500'
p5868
g56
sS'03503'
p5869
g56
sS'03502'
p5870
g224
sS'03505'
p5871
g56
sS'03504'
p5872
g56
sS'03507'
p5873
g56
sS'03506'
p5874
g56
sS'05086'
p5875
g129
s.