(dp1
S'04997'
p2
I23
sS'04996'
p3
I23
sS'04995'
p4
I23
sS'02109'
p5
I33
sS'04993'
p6
I23
sS'04992'
p7
I23
sS'04991'
p8
I23
sS'04990'
p9
I23
sS'02102'
p10
I33
sS'02103'
p11
I33
sS'02100'
p12
I33
sS'02101'
p13
I33
sS'02106'
p14
I33
sS'02107'
p15
I33
sS'02104'
p16
I33
sS'02105'
p17
I33
sS'00852'
p18
I11
sS'00853'
p19
I11
sS'00850'
p20
I11
sS'00851'
p21
I11
sS'00856'
p22
I11
sS'00857'
p23
I11
sS'00854'
p24
I11
sS'00855'
p25
I11
sS'00858'
p26
I11
sS'00859'
p27
I11
sS'01455'
p28
I24
sS'01454'
p29
I24
sS'01457'
p30
I24
sS'01456'
p31
I24
sS'01451'
p32
I24
sS'01450'
p33
I24
sS'01453'
p34
I24
sS'01452'
p35
I24
sS'01459'
p36
I24
sS'01458'
p37
I24
sS'02108'
p38
I33
sS'04994'
p39
I23
sS'05734'
p40
I29
sS'05735'
p41
I29
sS'05736'
p42
I29
sS'05737'
p43
I29
sS'05730'
p44
I29
sS'05731'
p45
I29
sS'05732'
p46
I29
sS'05733'
p47
I29
sS'05738'
p48
I29
sS'05739'
p49
I29
sS'01024'
p50
I4
sS'01025'
p51
I4
sS'05228'
p52
I35
sS'01027'
p53
I4
sS'01020'
p54
I4
sS'01021'
p55
I4
sS'01022'
p56
I4
sS'01023'
p57
I4
sS'05222'
p58
I35
sS'05223'
p59
I35
sS'05220'
p60
I35
sS'05221'
p61
I35
sS'05226'
p62
I35
sS'05227'
p63
I35
sS'05224'
p64
I35
sS'05225'
p65
I35
sS'03797'
p66
I5
sS'03790'
p67
I5
sS'03791'
p68
I5
sS'03020'
p69
I2
sS'03021'
p70
I2
sS'04999'
p71
I23
sS'04998'
p72
I23
sS'04175'
p73
I8
sS'04174'
p74
I8
sS'04177'
p75
I8
sS'04176'
p76
I8
sS'04171'
p77
I8
sS'04170'
p78
I8
sS'04173'
p79
I8
sS'04172'
p80
I8
sS'04179'
p81
I8
sS'04178'
p82
I8
sS'03772'
p83
I5
sS'03773'
p84
I5
sS'03770'
p85
I5
sS'03771'
p86
I5
sS'03776'
p87
I5
sS'03777'
p88
I5
sS'03774'
p89
I5
sS'03775'
p90
I5
sS'03778'
p91
I5
sS'03779'
p92
I5
sS'02829'
p93
I1
sS'02828'
p94
I1
sS'02825'
p95
I1
sS'02824'
p96
I1
sS'02827'
p97
I1
sS'02826'
p98
I1
sS'02821'
p99
I1
sS'02820'
p100
I1
sS'02823'
p101
I1
sS'02822'
p102
I1
sS'01335'
p103
I19
sS'00089'
p104
I37
sS'00088'
p105
I37
sS'00085'
p106
I37
sS'00084'
p107
I37
sS'00087'
p108
I37
sS'00086'
p109
I37
sS'00081'
p110
I37
sS'00080'
p111
I37
sS'00083'
p112
I37
sS'00082'
p113
I37
sS'01333'
p114
I19
sS'01583'
p115
I26
sS'01582'
p116
I26
sS'01581'
p117
I26
sS'03196'
p118
I2
sS'03197'
p119
I2
sS'03194'
p120
I2
sS'03195'
p121
I2
sS'03192'
p122
I2
sS'03193'
p123
I2
sS'03190'
p124
I2
sS'03191'
p125
I2
sS'01587'
p126
I26
sS'03198'
p127
I2
sS'03199'
p128
I2
sS'01585'
p129
I26
sS'01584'
p130
I26
sS'01594'
p131
I26
sS'01595'
p132
I26
sS'01596'
p133
I26
sS'01597'
p134
I26
sS'01590'
p135
I26
sS'01591'
p136
I26
sS'01592'
p137
I26
sS'01593'
p138
I26
sS'01598'
p139
I26
sS'01599'
p140
I26
sS'01848'
p141
I29
sS'01849'
p142
I29
sS'01842'
p143
I29
sS'01843'
p144
I29
sS'01840'
p145
I29
sS'01841'
p146
I29
sS'01846'
p147
I29
sS'01847'
p148
I29
sS'01844'
p149
I29
sS'01845'
p150
I29
sS'00647'
p151
I1
sS'00646'
p152
I1
sS'00645'
p153
I1
sS'00644'
p154
I1
sS'00643'
p155
I1
sS'00642'
p156
I1
sS'00641'
p157
I1
sS'00640'
p158
I1
sS'00649'
p159
I1
sS'00648'
p160
I1
sS'05039'
p161
I24
sS'05038'
p162
I24
sS'05037'
p163
I24
sS'05036'
p164
I24
sS'05035'
p165
I24
sS'05034'
p166
I24
sS'05033'
p167
I24
sS'05032'
p168
I24
sS'05031'
p169
I24
sS'05030'
p170
I24
sS'04618'
p171
I14
sS'04619'
p172
I14
sS'04348'
p173
I10
sS'04349'
p174
I9
sS'04346'
p175
I10
sS'04347'
p176
I10
sS'04612'
p177
I14
sS'04613'
p178
I14
sS'04614'
p179
I14
sS'04615'
p180
I14
sS'04616'
p181
I14
sS'04617'
p182
I14
sS'00508'
p183
I35
sS'00509'
p184
I35
sS'00500'
p185
I35
sS'00501'
p186
I35
sS'00502'
p187
I35
sS'00503'
p188
I35
sS'00504'
p189
I35
sS'00505'
p190
I35
sS'00506'
p191
I35
sS'00507'
p192
I35
sS'05693'
p193
I28
sS'05692'
p194
I28
sS'05691'
p195
I28
sS'05690'
p196
I28
sS'05697'
p197
I28
sS'05696'
p198
I28
sS'05695'
p199
I28
sS'05694'
p200
I28
sS'05699'
p201
I28
sS'05698'
p202
I28
sS'03699'
p203
I4
sS'03698'
p204
I4
sS'03349'
p205
I3
sS'03348'
p206
I3
sS'03343'
p207
I3
sS'03342'
p208
I3
sS'03341'
p209
I3
sS'03692'
p210
I4
sS'03695'
p211
I4
sS'03346'
p212
I3
sS'03697'
p213
I4
sS'03696'
p214
I4
sS'01279'
p215
I15
sS'01278'
p216
I15
sS'01271'
p217
I15
sS'01270'
p218
I14
sS'01273'
p219
I15
sS'01272'
p220
I15
sS'01275'
p221
I15
sS'01274'
p222
I15
sS'01277'
p223
I15
sS'01276'
p224
I15
sS'03527'
p225
I4
sS'03526'
p226
I4
sS'03525'
p227
I4
sS'03524'
p228
I4
sS'03523'
p229
I4
sS'03522'
p230
I4
sS'03521'
p231
I4
sS'03520'
p232
I4
sS'03529'
p233
I4
sS'03528'
p234
I4
sS'02120'
p235
I33
sS'02121'
p236
I33
sS'02122'
p237
I33
sS'02123'
p238
I33
sS'02124'
p239
I33
sS'02125'
p240
I33
sS'02126'
p241
I33
sS'02127'
p242
I33
sS'02128'
p243
I33
sS'02129'
p244
I33
sS'04979'
p245
I23
sS'04978'
p246
I23
sS'04975'
p247
I23
sS'04974'
p248
I23
sS'04977'
p249
I23
sS'04976'
p250
I23
sS'04971'
p251
I23
sS'04970'
p252
I23
sS'04973'
p253
I23
sS'04972'
p254
I23
sS'00878'
p255
I13
sS'00879'
p256
I13
sS'00870'
p257
I11
sS'00871'
p258
I12
sS'00872'
p259
I12
sS'00873'
p260
I12
sS'00874'
p261
I12
sS'00875'
p262
I12
sS'00876'
p263
I13
sS'00877'
p264
I13
sS'05186'
p265
I33
sS'01473'
p266
I24
sS'01472'
p267
I24
sS'01471'
p268
I24
sS'01470'
p269
I24
sS'01477'
p270
I24
sS'01476'
p271
I24
sS'01475'
p272
I24
sS'01474'
p273
I24
sS'01479'
p274
I24
sS'01478'
p275
I24
sS'03613'
p276
I4
sS'03612'
p277
I4
sS'00492'
p278
I35
sS'03618'
p279
I4
sS'05752'
p280
I29
sS'05201'
p281
I34
sS'05202'
p282
I34
sS'05203'
p283
I34
sS'05756'
p284
I29
sS'05757'
p285
I29
sS'05754'
p286
I29
sS'05755'
p287
I29
sS'05208'
p288
I34
sS'05209'
p289
I34
sS'05758'
p290
I29
sS'05759'
p291
I29
sS'01042'
p292
I5
sS'01043'
p293
I5
sS'01040'
p294
I4
sS'01041'
p295
I5
sS'01046'
p296
I5
sS'01047'
p297
I5
sS'01044'
p298
I5
sS'01045'
p299
I5
sS'01048'
p300
I5
sS'01049'
p301
I5
sS'02465'
p302
I37
sS'02464'
p303
I37
sS'02467'
p304
I37
sS'02466'
p305
I37
sS'02461'
p306
I37
sS'02460'
p307
I37
sS'02463'
p308
I37
sS'02462'
p309
I37
sS'02469'
p310
I37
sS'02468'
p311
I37
sS'04153'
p312
I8
sS'04152'
p313
I8
sS'04151'
p314
I8
sS'04150'
p315
I8
sS'04157'
p316
I8
sS'04156'
p317
I8
sS'04155'
p318
I8
sS'04154'
p319
I8
sS'04405'
p320
I10
sS'04404'
p321
I10
sS'04159'
p322
I8
sS'04158'
p323
I8
sS'04401'
p324
I10
sS'04400'
p325
I10
sS'04403'
p326
I10
sS'04402'
p327
I10
sS'03432'
p328
I3
sS'00319'
p329
I6
sS'00318'
p330
I5
sS'00315'
p331
I4
sS'00314'
p332
I3
sS'00317'
p333
I5
sS'00316'
p334
I5
sS'00311'
p335
I2
sS'00310'
p336
I2
sS'00313'
p337
I3
sS'00312'
p338
I2
sS'03758'
p339
I4
sS'04607'
p340
I13
sS'03125'
p341
I2
sS'04606'
p342
I13
sS'03750'
p343
I4
sS'03751'
p344
I4
sS'03752'
p345
I4
sS'03753'
p346
I4
sS'03754'
p347
I4
sS'03755'
p348
I4
sS'03756'
p349
I4
sS'03757'
p350
I4
sS'02809'
p351
I1
sS'02808'
p352
I1
sS'02803'
p353
I1
sS'04603'
p354
I13
sS'02801'
p355
I1
sS'02800'
p356
I1
sS'02807'
p357
I1
sS'02806'
p358
I1
sS'02805'
p359
I1
sS'02804'
p360
I1
sS'04601'
p361
I13
sS'04600'
p362
I13
sS'01026'
p363
I4
sS'05229'
p364
I35
sS'01028'
p365
I4
sS'01029'
p366
I4
sS'01860'
p367
I29
sS'01861'
p368
I29
sS'01862'
p369
I29
sS'01863'
p370
I29
sS'01864'
p371
I29
sS'01865'
p372
I30
sS'01866'
p373
I30
sS'01867'
p374
I30
sS'01868'
p375
I30
sS'01869'
p376
I30
sS'02399'
p377
I36
sS'02258'
p378
I35
sS'02259'
p379
I35
sS'02256'
p380
I35
sS'02257'
p381
I35
sS'02254'
p382
I35
sS'02255'
p383
I35
sS'02252'
p384
I35
sS'02253'
p385
I35
sS'02250'
p386
I35
sS'02251'
p387
I35
sS'02784'
p388
I1
sS'02785'
p389
I1
sS'02786'
p390
I1
sS'02787'
p391
I1
sS'02780'
p392
I1
sS'02781'
p393
I1
sS'02782'
p394
I1
sS'02783'
p395
I1
sS'02788'
p396
I1
sS'02789'
p397
I1
sS'04364'
p398
I10
sS'04365'
p399
I10
sS'04366'
p400
I10
sS'04367'
p401
I10
sS'04360'
p402
I10
sS'04361'
p403
I10
sS'04362'
p404
I10
sS'04363'
p405
I10
sS'01781'
p406
I29
sS'01780'
p407
I29
sS'01783'
p408
I29
sS'01782'
p409
I29
sS'04368'
p410
I10
sS'04369'
p411
I10
sS'01787'
p412
I29
sS'01786'
p413
I29
sS'03321'
p414
I3
sS'03320'
p415
I3
sS'03323'
p416
I3
sS'03322'
p417
I3
sS'03325'
p418
I3
sS'03324'
p419
I3
sS'03327'
p420
I3
sS'03326'
p421
I3
sS'03329'
p422
I3
sS'03328'
p423
I3
sS'05415'
p424
I10
sS'05414'
p425
I10
sS'05417'
p426
I10
sS'05416'
p427
I10
sS'05411'
p428
I10
sS'05410'
p429
I10
sS'05413'
p430
I10
sS'05412'
p431
I10
sS'05419'
p432
I10
sS'05418'
p433
I10
sS'01257'
p434
I13
sS'01256'
p435
I13
sS'01255'
p436
I13
sS'01254'
p437
I13
sS'01253'
p438
I13
sS'01252'
p439
I13
sS'01251'
p440
I13
sS'01250'
p441
I12
sS'01259'
p442
I13
sS'01258'
p443
I13
sS'04092'
p444
I8
sS'04093'
p445
I8
sS'04090'
p446
I8
sS'04091'
p447
I8
sS'04096'
p448
I8
sS'04097'
p449
I8
sS'04094'
p450
I8
sS'04095'
p451
I8
sS'04098'
p452
I8
sS'04099'
p453
I8
sS'00126'
p454
I38
sS'00127'
p455
I38
sS'00124'
p456
I38
sS'00125'
p457
I38
sS'00122'
p458
I38
sS'00123'
p459
I38
sS'00120'
p460
I38
sS'00121'
p461
I38
sS'00128'
p462
I38
sS'00129'
p463
I38
sS'04959'
p464
I22
sS'04958'
p465
I22
sS'04953'
p466
I22
sS'04952'
p467
I22
sS'04951'
p468
I22
sS'04950'
p469
I22
sS'04957'
p470
I22
sS'04956'
p471
I22
sS'04955'
p472
I22
sS'04954'
p473
I22
sS'01419'
p474
I24
sS'01418'
p475
I24
sS'01411'
p476
I24
sS'01410'
p477
I24
sS'01413'
p478
I24
sS'01412'
p479
I24
sS'01415'
p480
I24
sS'01414'
p481
I24
sS'01417'
p482
I24
sS'01416'
p483
I24
sS'05778'
p484
I30
sS'05779'
p485
I30
sS'05770'
p486
I30
sS'05771'
p487
I29
sS'05772'
p488
I30
sS'05773'
p489
I30
sS'05774'
p490
I30
sS'05775'
p491
I30
sS'05776'
p492
I30
sS'05777'
p493
I30
sS'01068'
p494
I5
sS'01069'
p495
I5
sS'05090'
p496
I26
sS'01060'
p497
I5
sS'01061'
p498
I5
sS'01062'
p499
I5
sS'01063'
p500
I5
sS'01064'
p501
I5
sS'01065'
p502
I5
sS'01066'
p503
I5
sS'01067'
p504
I5
sS'05092'
p505
I26
sS'05547'
p506
I23
sS'05546'
p507
I23
sS'05545'
p508
I23
sS'05544'
p509
I23
sS'02443'
p510
I37
sS'02442'
p511
I37
sS'02441'
p512
I36
sS'02440'
p513
I36
sS'02447'
p514
I37
sS'02446'
p515
I37
sS'02445'
p516
I37
sS'02444'
p517
I37
sS'02449'
p518
I37
sS'02448'
p519
I37
sS'04139'
p520
I8
sS'04138'
p521
I8
sS'04429'
p522
I10
sS'04428'
p523
I10
sS'04423'
p524
I10
sS'04422'
p525
I10
sS'04421'
p526
I10
sS'04132'
p527
I8
sS'04427'
p528
I10
sS'04426'
p529
I10
sS'04137'
p530
I8
sS'04136'
p531
I8
sS'00339'
p532
I8
sS'00338'
p533
I8
sS'00333'
p534
I8
sS'00332'
p535
I6
sS'00331'
p536
I6
sS'00330'
p537
I6
sS'00337'
p538
I8
sS'00336'
p539
I8
sS'00335'
p540
I8
sS'00334'
p541
I8
sS'02861'
p542
I1
sS'02860'
p543
I1
sS'02863'
p544
I1
sS'02862'
p545
I1
sS'02865'
p546
I1
sS'02864'
p547
I1
sS'02867'
p548
I1
sS'02866'
p549
I1
sS'02869'
p550
I1
sS'02868'
p551
I1
sS'04542'
p552
I12
sS'04543'
p553
I12
sS'04544'
p554
I12
sS'04545'
p555
I12
sS'04230'
p556
I9
sS'04547'
p557
I12
sS'01888'
p558
I30
sS'01889'
p559
I30
sS'01886'
p560
I30
sS'01887'
p561
I30
sS'01884'
p562
I30
sS'01885'
p563
I30
sS'01882'
p564
I30
sS'01883'
p565
I30
sS'01880'
p566
I30
sS'01881'
p567
I30
sS'00939'
p568
I39
sS'00938'
p569
I39
sS'00935'
p570
I38
sS'00934'
p571
I38
sS'00937'
p572
I39
sS'00936'
p573
I39
sS'00931'
p574
I38
sS'00930'
p575
I38
sS'00933'
p576
I38
sS'00932'
p577
I38
sS'02274'
p578
I35
sS'02275'
p579
I35
sS'02276'
p580
I35
sS'02277'
p581
I35
sS'02270'
p582
I35
sS'02271'
p583
I35
sS'02272'
p584
I35
sS'02273'
p585
I35
sS'00683'
p586
I2
sS'00682'
p587
I2
sS'00681'
p588
I2
sS'00680'
p589
I2
sS'00687'
p590
I2
sS'00686'
p591
I2
sS'00685'
p592
I2
sS'00684'
p593
I2
sS'03905'
p594
I5
sS'03904'
p595
I5
sS'04300'
p596
I9
sS'03906'
p597
I5
sS'03901'
p598
I5
sS'03900'
p599
I5
sS'03903'
p600
I5
sS'04305'
p601
I9
sS'04308'
p602
I9
sS'04309'
p603
I9
sS'03909'
p604
I5
sS'03908'
p605
I5
sS'03659'
p606
I4
sS'03658'
p607
I4
sS'03309'
p608
I3
sS'03308'
p609
I3
sS'03307'
p610
I3
sS'03306'
p611
I3
sS'03305'
p612
I3
sS'03304'
p613
I3
sS'03303'
p614
I3
sS'03302'
p615
I3
sS'03301'
p616
I3
sS'03652'
p617
I4
sS'05433'
p618
I11
sS'05432'
p619
I11
sS'05431'
p620
I11
sS'05430'
p621
I11
sS'05437'
p622
I12
sS'05436'
p623
I12
sS'05435'
p624
I11
sS'05434'
p625
I11
sS'05439'
p626
I12
sS'05438'
p627
I12
sS'00108'
p628
I38
sS'00109'
p629
I38
sS'00104'
p630
I37
sS'00105'
p631
I38
sS'00106'
p632
I38
sS'00107'
p633
I38
sS'00100'
p634
I37
sS'00101'
p635
I37
sS'00102'
p636
I37
sS'00103'
p637
I37
sS'04931'
p638
I21
sS'04930'
p639
I21
sS'04933'
p640
I21
sS'04932'
p641
I21
sS'04935'
p642
I21
sS'04934'
p643
I21
sS'04937'
p644
I21
sS'04936'
p645
I21
sS'04939'
p646
I21
sS'04938'
p647
I21
sS'02395'
p648
I36
sS'02394'
p649
I36
sS'01437'
p650
I24
sS'01436'
p651
I24
sS'01435'
p652
I24
sS'01434'
p653
I24
sS'01433'
p654
I24
sS'01432'
p655
I24
sS'01431'
p656
I24
sS'01430'
p657
I24
sS'02398'
p658
I36
sS'01439'
p659
I24
sS'01438'
p660
I24
sS'00746'
p661
I5
sS'00747'
p662
I5
sS'00744'
p663
I5
sS'00745'
p664
I5
sS'00742'
p665
I5
sS'00743'
p666
I5
sS'00740'
p667
I5
sS'00741'
p668
I5
sS'00748'
p669
I5
sS'00749'
p670
I5
sS'02429'
p671
I36
sS'02428'
p672
I36
sS'02421'
p673
I36
sS'02420'
p674
I36
sS'02423'
p675
I36
sS'02422'
p676
I36
sS'02425'
p677
I36
sS'02424'
p678
I36
sS'02427'
p679
I36
sS'02426'
p680
I36
sS'04441'
p681
I11
sS'04440'
p682
I11
sS'04443'
p683
I11
sS'04442'
p684
I11
sS'04445'
p685
I11
sS'04444'
p686
I11
sS'04447'
p687
I11
sS'04446'
p688
I11
sS'04449'
p689
I11
sS'04448'
p690
I11
sS'04119'
p691
I8
sS'04118'
p692
I8
sS'00351'
p693
I8
sS'00350'
p694
I8
sS'00353'
p695
I8
sS'00352'
p696
I8
sS'00355'
p697
I8
sS'00354'
p698
I8
sS'00357'
p699
I8
sS'00356'
p700
I8
sS'00359'
p701
I10
sS'00358'
p702
I8
sS'03466'
p703
I3
sS'03467'
p704
I3
sS'03464'
p705
I3
sS'03465'
p706
I3
sS'03462'
p707
I3
sS'03463'
p708
I3
sS'03460'
p709
I3
sS'03461'
p710
I3
sS'03468'
p711
I3
sS'03469'
p712
I3
sS'02849'
p713
I1
sS'02848'
p714
I1
sS'02847'
p715
I1
sS'02846'
p716
I1
sS'02845'
p717
I1
sS'02844'
p718
I1
sS'02843'
p719
I1
sS'02842'
p720
I1
sS'02841'
p721
I1
sS'02840'
p722
I1
sS'00919'
p723
I37
sS'00918'
p724
I37
sS'00913'
p725
I37
sS'00912'
p726
I37
sS'00911'
p727
I37
sS'00910'
p728
I37
sS'00917'
p729
I37
sS'00916'
p730
I37
sS'00915'
p731
I37
sS'00914'
p732
I37
sS'02212'
p733
I34
sS'02213'
p734
I34
sS'02210'
p735
I34
sS'02211'
p736
I34
sS'02216'
p737
I34
sS'02217'
p738
I34
sS'02214'
p739
I34
sS'02215'
p740
I34
sS'02218'
p741
I34
sS'02219'
p742
I34
sS'05639'
p743
I26
sS'05183'
p744
I33
sS'05182'
p745
I33
sS'05181'
p746
I33
sS'05180'
p747
I33
sS'05187'
p748
I33
sS'05638'
p749
I26
sS'05185'
p750
I33
sS'05184'
p751
I33
sS'05635'
p752
I26
sS'05634'
p753
I25
sS'05189'
p754
I33
sS'05188'
p755
I33
sS'05631'
p756
I25
sS'05630'
p757
I25
sS'05633'
p758
I25
sS'05632'
p759
I25
sS'01749'
p760
I28
sS'01748'
p761
I28
sS'01745'
p762
I28
sS'01744'
p763
I28
sS'01747'
p764
I28
sS'01746'
p765
I28
sS'01741'
p766
I28
sS'01740'
p767
I28
sS'01743'
p768
I28
sS'01742'
p769
I28
sS'04328'
p770
I9
sS'03922'
p771
I5
sS'03921'
p772
I5
sS'03920'
p773
I5
sS'03927'
p774
I5
sS'03926'
p775
I5
sS'03925'
p776
I5
sS'03924'
p777
I5
sS'04320'
p778
I9
sS'04321'
p779
I9
sS'04322'
p780
I9
sS'04323'
p781
I9
sS'04324'
p782
I9
sS'04325'
p783
I9
sS'04326'
p784
I9
sS'04327'
p785
I9
sS'03679'
p786
I4
sS'03678'
p787
I4
sS'03673'
p788
I4
sS'03672'
p789
I4
sS'03671'
p790
I4
sS'03670'
p791
I4
sS'03677'
p792
I4
sS'03676'
p793
I4
sS'03675'
p794
I4
sS'03674'
p795
I4
sS'05459'
p796
I15
sS'05458'
p797
I15
sS'05451'
p798
I14
sS'05450'
p799
I14
sS'05453'
p800
I14
sS'05452'
p801
I14
sS'05455'
p802
I14
sS'05454'
p803
I14
sS'05457'
p804
I14
sS'05456'
p805
I15
sS'01299'
p806
I16
sS'01298'
p807
I16
sS'01293'
p808
I15
sS'01292'
p809
I15
sS'01291'
p810
I15
sS'01290'
p811
I15
sS'01297'
p812
I15
sS'01296'
p813
I15
sS'01295'
p814
I15
sS'01294'
p815
I15
sS'05637'
p816
I26
sS'04588'
p817
I13
sS'04589'
p818
I13
sS'04584'
p819
I13
sS'04585'
p820
I13
sS'04586'
p821
I13
sS'04587'
p822
I13
sS'04580'
p823
I13
sS'04581'
p824
I13
sS'04582'
p825
I13
sS'04583'
p826
I13
sS'02988'
p827
I2
sS'02989'
p828
I2
sS'02982'
p829
I2
sS'02983'
p830
I2
sS'02980'
p831
I2
sS'02981'
p832
I2
sS'02986'
p833
I2
sS'02987'
p834
I2
sS'02984'
p835
I2
sS'02985'
p836
I2
sS'03581'
p837
I4
sS'03580'
p838
I4
sS'03583'
p839
I4
sS'03582'
p840
I4
sS'03585'
p841
I4
sS'03584'
p842
I4
sS'03587'
p843
I4
sS'03586'
p844
I4
sS'03589'
p845
I4
sS'00163'
p846
I39
sS'00160'
p847
I38
sS'00161'
p848
I38
sS'00166'
p849
I39
sS'00167'
p850
I39
sS'00164'
p851
I39
sS'00165'
p852
I39
sS'02182'
p853
I34
sS'02183'
p854
I34
sS'02180'
p855
I34
sS'02181'
p856
I34
sS'02186'
p857
I34
sS'02187'
p858
I34
sS'02184'
p859
I34
sS'02185'
p860
I34
sS'02188'
p861
I34
sS'02189'
p862
I34
sS'04919'
p863
I20
sS'04918'
p864
I20
sS'04917'
p865
I20
sS'04916'
p866
I20
sS'04915'
p867
I20
sS'04914'
p868
I20
sS'04913'
p869
I20
sS'04912'
p870
I20
sS'04911'
p871
I20
sS'04910'
p872
I20
sS'01987'
p873
I31
sS'01986'
p874
I31
sS'01985'
p875
I31
sS'01984'
p876
I31
sS'01983'
p877
I31
sS'01982'
p878
I31
sS'01981'
p879
I31
sS'01980'
p880
I31
sS'01989'
p881
I31
sS'01988'
p882
I31
sS'02605'
p883
I38
sS'02604'
p884
I38
sS'02607'
p885
I38
sS'02606'
p886
I38
sS'02601'
p887
I38
sS'02600'
p888
I38
sS'02603'
p889
I38
sS'02602'
p890
I38
sS'05835'
p891
I31
sS'00768'
p892
I6
sS'00769'
p893
I6
sS'00764'
p894
I6
sS'00765'
p895
I6
sS'00766'
p896
I6
sS'00767'
p897
I6
sS'00760'
p898
I6
sS'00761'
p899
I6
sS'00762'
p900
I6
sS'00763'
p901
I6
sS'05833'
p902
I31
sS'02407'
p903
I36
sS'02406'
p904
I36
sS'02405'
p905
I36
sS'02404'
p906
I36
sS'02403'
p907
I36
sS'02402'
p908
I36
sS'02401'
p909
I36
sS'02400'
p910
I36
sS'02409'
p911
I36
sS'02408'
p912
I36
sS'05832'
p913
I31
sS'05217'
p914
I35
sS'04469'
p915
I11
sS'04468'
p916
I11
sS'04467'
p917
I11
sS'04466'
p918
I11
sS'04465'
p919
I11
sS'04464'
p920
I11
sS'04463'
p921
I11
sS'05743'
p922
I29
sS'04461'
p923
I11
sS'04460'
p924
I11
sS'05742'
p925
I29
sS'00379'
p926
I26
sS'00378'
p927
I26
sS'00377'
p928
I26
sS'05745'
p929
I29
sS'00375'
p930
I26
sS'00374'
p931
I26
sS'00373'
p932
I25
sS'00372'
p933
I25
sS'00371'
p934
I25
sS'05212'
p935
I35
sS'05211'
p936
I35
sS'05746'
p937
I29
sS'04610'
p938
I14
sS'04611'
p939
I14
sS'04344'
p940
I10
sS'04345'
p941
I9
sS'04342'
p942
I9
sS'00013'
p943
I35
sS'04343'
p944
I9
sS'04340'
p945
I9
sS'04341'
p946
I9
sS'05846'
p947
I31
sS'05847'
p948
I32
sS'05844'
p949
I31
sS'05845'
p950
I32
sS'05842'
p951
I31
sS'05843'
p952
I31
sS'05840'
p953
I31
sS'05841'
p954
I31
sS'05848'
p955
I32
sS'05849'
p956
I32
sS'01176'
p957
I10
sS'01177'
p958
I10
sS'01174'
p959
I10
sS'01175'
p960
I10
sS'01172'
p961
I10
sS'01173'
p962
I10
sS'01170'
p963
I9
sS'01171'
p964
I10
sS'01178'
p965
I10
sS'01179'
p966
I10
sS'03448'
p967
I3
sS'03449'
p968
I3
sS'03118'
p969
I2
sS'03119'
p970
I2
sS'03116'
p971
I2
sS'03117'
p972
I2
sS'03446'
p973
I3
sS'03447'
p974
I3
sS'03112'
p975
I2
sS'03113'
p976
I2
sS'03442'
p977
I3
sS'03443'
p978
I3
sS'04537'
p979
I12
sS'00971'
p980
I2
sS'00970'
p981
I2
sS'00973'
p982
I2
sS'00972'
p983
I2
sS'00975'
p984
I2
sS'00974'
p985
I2
sS'00977'
p986
I3
sS'00976'
p987
I3
sS'00979'
p988
I3
sS'00978'
p989
I3
sS'02238'
p990
I34
sS'02239'
p991
I34
sS'02230'
p992
I34
sS'02231'
p993
I34
sS'02232'
p994
I34
sS'02233'
p995
I34
sS'02234'
p996
I34
sS'02235'
p997
I34
sS'02236'
p998
I34
sS'02237'
p999
I34
sS'05619'
p1000
I25
sS'05618'
p1001
I25
sS'05613'
p1002
I25
sS'05612'
p1003
I25
sS'05611'
p1004
I25
sS'05610'
p1005
I25
sS'05617'
p1006
I25
sS'05616'
p1007
I25
sS'05615'
p1008
I25
sS'05614'
p1009
I25
sS'01769'
p1010
I28
sS'01768'
p1011
I28
sS'01763'
p1012
I28
sS'01762'
p1013
I28
sS'01761'
p1014
I28
sS'01760'
p1015
I28
sS'01767'
p1016
I28
sS'01766'
p1017
I28
sS'01765'
p1018
I28
sS'01764'
p1019
I28
sS'03949'
p1020
I5
sS'03948'
p1021
I5
sS'03941'
p1022
I5
sS'03940'
p1023
I5
sS'03943'
p1024
I5
sS'03942'
p1025
I5
sS'03945'
p1026
I5
sS'03944'
p1027
I5
sS'03947'
p1028
I5
sS'03946'
p1029
I5
sS'05477'
p1030
I18
sS'05476'
p1031
I18
sS'05475'
p1032
I17
sS'05474'
p1033
I17
sS'05473'
p1034
I17
sS'05472'
p1035
I17
sS'05471'
p1036
I17
sS'05470'
p1037
I17
sS'05479'
p1038
I19
sS'05478'
p1039
I18
sS'03611'
p1040
I4
sS'03610'
p1041
I4
sS'00498'
p1042
I35
sS'00499'
p1043
I35
sS'03615'
p1044
I4
sS'03614'
p1045
I4
sS'03617'
p1046
I4
sS'03616'
p1047
I4
sS'03619'
p1048
I4
sS'00493'
p1049
I35
sS'00490'
p1050
I35
sS'00491'
p1051
I35
sS'00496'
p1052
I35
sS'00497'
p1053
I35
sS'00494'
p1054
I35
sS'00495'
p1055
I35
sS'04706'
p1056
I16
sS'04707'
p1057
I16
sS'04704'
p1058
I16
sS'04705'
p1059
I16
sS'04702'
p1060
I16
sS'04703'
p1061
I16
sS'04700'
p1062
I16
sS'04701'
p1063
I16
sS'04708'
p1064
I16
sS'04709'
p1065
I16
sS'00140'
p1066
I38
sS'00141'
p1067
I38
sS'00142'
p1068
I38
sS'00143'
p1069
I38
sS'00144'
p1070
I38
sS'00145'
p1071
I38
sS'00146'
p1072
I38
sS'00147'
p1073
I38
sS'00148'
p1074
I38
sS'00149'
p1075
I38
sS'01969'
p1076
I31
sS'01968'
p1077
I31
sS'01965'
p1078
I31
sS'01964'
p1079
I31
sS'01967'
p1080
I31
sS'01966'
p1081
I31
sS'01961'
p1082
I31
sS'01960'
p1083
I31
sS'01963'
p1084
I31
sS'01962'
p1085
I31
sS'03691'
p1086
I4
sS'03690'
p1087
I4
sS'03693'
p1088
I4
sS'03340'
p1089
I3
sS'03347'
p1090
I3
sS'03694'
p1091
I4
sS'03345'
p1092
I3
sS'03344'
p1093
I3
sS'05088'
p1094
I26
sS'05089'
p1095
I26
sS'02397'
p1096
I36
sS'02396'
p1097
I36
sS'00708'
p1098
I3
sS'00709'
p1099
I3
sS'02393'
p1100
I36
sS'02392'
p1101
I36
sS'02391'
p1102
I36
sS'02390'
p1103
I36
sS'00702'
p1104
I3
sS'00703'
p1105
I3
sS'00700'
p1106
I3
sS'00701'
p1107
I3
sS'00706'
p1108
I3
sS'00707'
p1109
I3
sS'00704'
p1110
I3
sS'00705'
p1111
I3
sS'05288'
p1112
I40
sS'05289'
p1113
I40
sS'05280'
p1114
I39
sS'05281'
p1115
I39
sS'05282'
p1116
I39
sS'05283'
p1117
I39
sS'05284'
p1118
I39
sS'05285'
p1119
I39
sS'05286'
p1120
I39
sS'05287'
p1121
I40
sS'01158'
p1122
I9
sS'01159'
p1123
I9
sS'01154'
p1124
I9
sS'01155'
p1125
I9
sS'01156'
p1126
I9
sS'01157'
p1127
I9
sS'01150'
p1128
I9
sS'01151'
p1129
I9
sS'01152'
p1130
I9
sS'01153'
p1131
I9
sS'03134'
p1132
I2
sS'03135'
p1133
I2
sS'03136'
p1134
I2
sS'03137'
p1135
I2
sS'03130'
p1136
I2
sS'03131'
p1137
I2
sS'03132'
p1138
I2
sS'03133'
p1139
I2
sS'03138'
p1140
I2
sS'03139'
p1141
I2
sS'03428'
p1142
I3
sS'03429'
p1143
I3
sS'03422'
p1144
I3
sS'03423'
p1145
I3
sS'03420'
p1146
I3
sS'03421'
p1147
I3
sS'03426'
p1148
I3
sS'03427'
p1149
I3
sS'03424'
p1150
I3
sS'03425'
p1151
I3
sS'00959'
p1152
I2
sS'00958'
p1153
I2
sS'00957'
p1154
I1
sS'00956'
p1155
I1
sS'00955'
p1156
I1
sS'00954'
p1157
I40
sS'00953'
p1158
I40
sS'00952'
p1159
I40
sS'00951'
p1160
I40
sS'00950'
p1161
I39
sS'05671'
p1162
I27
sS'05670'
p1163
I27
sS'05673'
p1164
I27
sS'05672'
p1165
I27
sS'05675'
p1166
I27
sS'05674'
p1167
I27
sS'05677'
p1168
I27
sS'05676'
p1169
I27
sS'05679'
p1170
I27
sS'05678'
p1171
I27
sS'01701'
p1172
I27
sS'01700'
p1173
I27
sS'01703'
p1174
I27
sS'01702'
p1175
I27
sS'01705'
p1176
I28
sS'01704'
p1177
I28
sS'01707'
p1178
I28
sS'01706'
p1179
I28
sS'01709'
p1180
I28
sS'01708'
p1181
I28
sS'03967'
p1182
I5
sS'03966'
p1183
I5
sS'03965'
p1184
I5
sS'03964'
p1185
I5
sS'03963'
p1186
I5
sS'03962'
p1187
I5
sS'03961'
p1188
I5
sS'03960'
p1189
I5
sS'03969'
p1190
I5
sS'03968'
p1191
I5
sS'05499'
p1192
I22
sS'05498'
p1193
I22
sS'05495'
p1194
I22
sS'05494'
p1195
I22
sS'05497'
p1196
I22
sS'05496'
p1197
I22
sS'05491'
p1198
I22
sS'05490'
p1199
I22
sS'05493'
p1200
I22
sS'05492'
p1201
I22
sS'02616'
p1202
I38
sS'02617'
p1203
I38
sS'02614'
p1204
I38
sS'02615'
p1205
I38
sS'02612'
p1206
I38
sS'02613'
p1207
I38
sS'03639'
p1208
I4
sS'03638'
p1209
I4
sS'03637'
p1210
I4
sS'03636'
p1211
I4
sS'03635'
p1212
I4
sS'03634'
p1213
I4
sS'03633'
p1214
I4
sS'03632'
p1215
I4
sS'03631'
p1216
I4
sS'03630'
p1217
I4
sS'02948'
p1218
I1
sS'02949'
p1219
I1
sS'02946'
p1220
I1
sS'02947'
p1221
I1
sS'02944'
p1222
I1
sS'02945'
p1223
I1
sS'02942'
p1224
I1
sS'02943'
p1225
I1
sS'02940'
p1226
I1
sS'02941'
p1227
I1
sS'04728'
p1228
I16
sS'04729'
p1229
I16
sS'04724'
p1230
I16
sS'04725'
p1231
I16
sS'04726'
p1232
I16
sS'04727'
p1233
I16
sS'04720'
p1234
I16
sS'04721'
p1235
I16
sS'04722'
p1236
I16
sS'04723'
p1237
I16
sS'03093'
p1238
I2
sS'03092'
p1239
I2
sS'03091'
p1240
I2
sS'03090'
p1241
I2
sS'03097'
p1242
I2
sS'03096'
p1243
I2
sS'03095'
p1244
I2
sS'03094'
p1245
I2
sS'03099'
p1246
I2
sS'03098'
p1247
I2
sS'01949'
p1248
I30
sS'01948'
p1249
I30
sS'01943'
p1250
I30
sS'01942'
p1251
I30
sS'01941'
p1252
I30
sS'01940'
p1253
I30
sS'01947'
p1254
I30
sS'01946'
p1255
I30
sS'01945'
p1256
I30
sS'01944'
p1257
I30
sS'01491'
p1258
I24
sS'01490'
p1259
I24
sS'01493'
p1260
I24
sS'01492'
p1261
I24
sS'01495'
p1262
I24
sS'01494'
p1263
I24
sS'01497'
p1264
I24
sS'01496'
p1265
I24
sS'01499'
p1266
I24
sS'01498'
p1267
I24
sS'00720'
p1268
I4
sS'00721'
p1269
I4
sS'00722'
p1270
I4
sS'00723'
p1271
I4
sS'00724'
p1272
I4
sS'00725'
p1273
I4
sS'00726'
p1274
I4
sS'00727'
p1275
I4
sS'00728'
p1276
I4
sS'00729'
p1277
I4
sS'02379'
p1278
I36
sS'02378'
p1279
I36
sS'02375'
p1280
I36
sS'02374'
p1281
I36
sS'02377'
p1282
I36
sS'02376'
p1283
I36
sS'02371'
p1284
I36
sS'02370'
p1285
I36
sS'02373'
p1286
I36
sS'02372'
p1287
I36
sS'01878'
p1288
I30
sS'05808'
p1289
I30
sS'05809'
p1290
I30
sS'05802'
p1291
I30
sS'05803'
p1292
I30
sS'05800'
p1293
I30
sS'05801'
p1294
I30
sS'05806'
p1295
I30
sS'05807'
p1296
I30
sS'05804'
p1297
I30
sS'05805'
p1298
I30
sS'01138'
p1299
I9
sS'01139'
p1300
I9
sS'01132'
p1301
I9
sS'01133'
p1302
I9
sS'01130'
p1303
I9
sS'01131'
p1304
I9
sS'01136'
p1305
I9
sS'01137'
p1306
I9
sS'01134'
p1307
I9
sS'01135'
p1308
I9
sS'03152'
p1309
I2
sS'03153'
p1310
I2
sS'03150'
p1311
I2
sS'03403'
p1312
I3
sS'03156'
p1313
I2
sS'03157'
p1314
I2
sS'03154'
p1315
I2
sS'03155'
p1316
I2
sS'03408'
p1317
I3
sS'03409'
p1318
I3
sS'03158'
p1319
I2
sS'03159'
p1320
I2
sS'00265'
p1321
I1
sS'00264'
p1322
I1
sS'00267'
p1323
I1
sS'00266'
p1324
I1
sS'00261'
p1325
I1
sS'00260'
p1326
I1
sS'00263'
p1327
I1
sS'00262'
p1328
I1
sS'00269'
p1329
I1
sS'00268'
p1330
I1
sS'05129'
p1331
I28
sS'05128'
p1332
I28
sS'05659'
p1333
I26
sS'05658'
p1334
I26
sS'05657'
p1335
I26
sS'05656'
p1336
I26
sS'05655'
p1337
I26
sS'05654'
p1338
I26
sS'05653'
p1339
I26
sS'05652'
p1340
I26
sS'05651'
p1341
I26
sS'05650'
p1342
I26
sS'01729'
p1343
I28
sS'01728'
p1344
I28
sS'01727'
p1345
I28
sS'01726'
p1346
I28
sS'01725'
p1347
I28
sS'01724'
p1348
I28
sS'01723'
p1349
I28
sS'01722'
p1350
I28
sS'01721'
p1351
I28
sS'01720'
p1352
I28
sS'03989'
p1353
I5
sS'03988'
p1354
I5
sS'03985'
p1355
I5
sS'03984'
p1356
I5
sS'03987'
p1357
I5
sS'03986'
p1358
I5
sS'03981'
p1359
I5
sS'03980'
p1360
I5
sS'03983'
p1361
I5
sS'03982'
p1362
I5
sS'02586'
p1363
I38
sS'02587'
p1364
I38
sS'02584'
p1365
I38
sS'02585'
p1366
I38
sS'02582'
p1367
I38
sS'02583'
p1368
I38
sS'02580'
p1369
I38
sS'02581'
p1370
I38
sS'02588'
p1371
I38
sS'02589'
p1372
I38
sS'04298'
p1373
I9
sS'04299'
p1374
I9
sS'04528'
p1375
I12
sS'04529'
p1376
I12
sS'04294'
p1377
I9
sS'04295'
p1378
I9
sS'04296'
p1379
I9
sS'04297'
p1380
I9
sS'04290'
p1381
I9
sS'04291'
p1382
I9
sS'04292'
p1383
I9
sS'04293'
p1384
I9
sS'00458'
p1385
I32
sS'00459'
p1386
I32
sS'00456'
p1387
I32
sS'00457'
p1388
I32
sS'00454'
p1389
I32
sS'00455'
p1390
I32
sS'00452'
p1391
I32
sS'00453'
p1392
I32
sS'00450'
p1393
I32
sS'00451'
p1394
I32
sS'02638'
p1395
I38
sS'02639'
p1396
I38
sS'02634'
p1397
I38
sS'02635'
p1398
I38
sS'02636'
p1399
I38
sS'02637'
p1400
I38
sS'02630'
p1401
I38
sS'02631'
p1402
I38
sS'02632'
p1403
I38
sS'02633'
p1404
I38
sS'00184'
p1405
I39
sS'00185'
p1406
I39
sS'00186'
p1407
I39
sS'00187'
p1408
I39
sS'00180'
p1409
I39
sS'00181'
p1410
I39
sS'00182'
p1411
I39
sS'00183'
p1412
I39
sS'04742'
p1413
I16
sS'04743'
p1414
I16
sS'04740'
p1415
I16
sS'04741'
p1416
I16
sS'00188'
p1417
I39
sS'00189'
p1418
I39
sS'04744'
p1419
I16
sS'04745'
p1420
I16
sS'02964'
p1421
I1
sS'02965'
p1422
I1
sS'02966'
p1423
I1
sS'02967'
p1424
I1
sS'02960'
p1425
I1
sS'02961'
p1426
I1
sS'02962'
p1427
I1
sS'02963'
p1428
I1
sS'02968'
p1429
I1
sS'02969'
p1430
I1
sS'01921'
p1431
I30
sS'01920'
p1432
I30
sS'01923'
p1433
I30
sS'01922'
p1434
I30
sS'01925'
p1435
I30
sS'01924'
p1436
I30
sS'01927'
p1437
I30
sS'01926'
p1438
I30
sS'01929'
p1439
I30
sS'01928'
p1440
I30
sS'03215'
p1441
I2
sS'03214'
p1442
I2
sS'03217'
p1443
I2
sS'03216'
p1444
I2
sS'03211'
p1445
I2
sS'03210'
p1446
I2
sS'03213'
p1447
I2
sS'03212'
p1448
I2
sS'03219'
p1449
I2
sS'03218'
p1450
I2
sS'02610'
p1451
I38
sS'02611'
p1452
I38
sS'02036'
p1453
I32
sS'02037'
p1454
I32
sS'02034'
p1455
I32
sS'02035'
p1456
I32
sS'02032'
p1457
I32
sS'02033'
p1458
I32
sS'02030'
p1459
I32
sS'02031'
p1460
I32
sS'02038'
p1461
I32
sS'02039'
p1462
I32
sS'02618'
p1463
I38
sS'02619'
p1464
I38
sS'03417'
p1465
I3
sS'03416'
p1466
I3
sS'03415'
p1467
I3
sS'03414'
p1468
I3
sS'03413'
p1469
I3
sS'03412'
p1470
I3
sS'02359'
p1471
I36
sS'02358'
p1472
I36
sS'03411'
p1473
I3
sS'02353'
p1474
I36
sS'02352'
p1475
I36
sS'02351'
p1476
I36
sS'02350'
p1477
I36
sS'02357'
p1478
I36
sS'02356'
p1479
I36
sS'02355'
p1480
I36
sS'02354'
p1481
I36
sS'05200'
p1482
I34
sS'05753'
p1483
I29
sS'05750'
p1484
I29
sS'05751'
p1485
I29
sS'05204'
p1486
I34
sS'05205'
p1487
I34
sS'05206'
p1488
I34
sS'05207'
p1489
I34
sS'05820'
p1490
I31
sS'05821'
p1491
I31
sS'05822'
p1492
I31
sS'05823'
p1493
I31
sS'05824'
p1494
I31
sS'05825'
p1495
I31
sS'05826'
p1496
I31
sS'05827'
p1497
I31
sS'05828'
p1498
I31
sS'05829'
p1499
I31
sS'05358'
p1500
I3
sS'05359'
p1501
I3
sS'01110'
p1502
I9
sS'01111'
p1503
I9
sS'01112'
p1504
I9
sS'01113'
p1505
I9
sS'01114'
p1506
I9
sS'01115'
p1507
I9
sS'01116'
p1508
I9
sS'01117'
p1509
I9
sS'01118'
p1510
I9
sS'01119'
p1511
I9
sS'04199'
p1512
I8
sS'04198'
p1513
I8
sS'04197'
p1514
I8
sS'04196'
p1515
I8
sS'04195'
p1516
I8
sS'04194'
p1517
I8
sS'04193'
p1518
I8
sS'04192'
p1519
I8
sS'04191'
p1520
I8
sS'04190'
p1521
I8
sS'03178'
p1522
I2
sS'03179'
p1523
I2
sS'03170'
p1524
I2
sS'03171'
p1525
I2
sS'03172'
p1526
I2
sS'03173'
p1527
I2
sS'03174'
p1528
I2
sS'03175'
p1529
I2
sS'03176'
p1530
I2
sS'03177'
p1531
I2
sS'00243'
p1532
I40
sS'00242'
p1533
I40
sS'00241'
p1534
I40
sS'00240'
p1535
I40
sS'00247'
p1536
I1
sS'00246'
p1537
I1
sS'00245'
p1538
I40
sS'00244'
p1539
I40
sS'00249'
p1540
I1
sS'00248'
p1541
I1
sS'05109'
p1542
I27
sS'05108'
p1543
I27
sS'05103'
p1544
I27
sS'05102'
p1545
I27
sS'05101'
p1546
I27
sS'05100'
p1547
I26
sS'05107'
p1548
I27
sS'05106'
p1549
I27
sS'05105'
p1550
I27
sS'05104'
p1551
I27
sS'00885'
p1552
I37
sS'00884'
p1553
I37
sS'00887'
p1554
I37
sS'00886'
p1555
I37
sS'00881'
p1556
I13
sS'00880'
p1557
I13
sS'00883'
p1558
I37
sS'00882'
p1559
I13
sS'00889'
p1560
I37
sS'00888'
p1561
I37
sS'04504'
p1562
I11
sS'04505'
p1563
I11
sS'04506'
p1564
I11
sS'04507'
p1565
I11
sS'04500'
p1566
I11
sS'04501'
p1567
I11
sS'04502'
p1568
I11
sS'04503'
p1569
I11
sS'04508'
p1570
I11
sS'04509'
p1571
I11
sS'00474'
p1572
I34
sS'00475'
p1573
I34
sS'00476'
p1574
I34
sS'00477'
p1575
I34
sS'00470'
p1576
I34
sS'00471'
p1577
I34
sS'00472'
p1578
I34
sS'00473'
p1579
I34
sS'00478'
p1580
I35
sS'00479'
p1581
I35
sS'02658'
p1582
I39
sS'02659'
p1583
I39
sS'02652'
p1584
I39
sS'02653'
p1585
I39
sS'02650'
p1586
I39
sS'02651'
p1587
I39
sS'02656'
p1588
I39
sS'02657'
p1589
I39
sS'02654'
p1590
I39
sS'02655'
p1591
I39
sS'04760'
p1592
I16
sS'04761'
p1593
I17
sS'04762'
p1594
I17
sS'04763'
p1595
I17
sS'04764'
p1596
I17
sS'04765'
p1597
I17
sS'04766'
p1598
I17
sS'04767'
p1599
I17
sS'04768'
p1600
I17
sS'04769'
p1601
I17
sS'01305'
p1602
I16
sS'01304'
p1603
I16
sS'01307'
p1604
I16
sS'01306'
p1605
I16
sS'01301'
p1606
I16
sS'01300'
p1607
I16
sS'01303'
p1608
I16
sS'01302'
p1609
I16
sS'02908'
p1610
I1
sS'02909'
p1611
I1
sS'01309'
p1612
I16
sS'01308'
p1613
I16
sS'01909'
p1614
I30
sS'01908'
p1615
I30
sS'01907'
p1616
I30
sS'01906'
p1617
I30
sS'01905'
p1618
I30
sS'01904'
p1619
I30
sS'01903'
p1620
I30
sS'01902'
p1621
I30
sS'01901'
p1622
I30
sS'01900'
p1623
I30
sS'03233'
p1624
I2
sS'03232'
p1625
I2
sS'03231'
p1626
I2
sS'03230'
p1627
I2
sS'03237'
p1628
I2
sS'03236'
p1629
I2
sS'03235'
p1630
I2
sS'03234'
p1631
I2
sS'03238'
p1632
I2
sS'04409'
p1633
I10
sS'04408'
p1634
I10
sS'04407'
p1635
I10
sS'04406'
p1636
I10
sS'02018'
p1637
I31
sS'02019'
p1638
I31
sS'02014'
p1639
I31
sS'02015'
p1640
I31
sS'02016'
p1641
I31
sS'02017'
p1642
I31
sS'02010'
p1643
I31
sS'02011'
p1644
I31
sS'02012'
p1645
I31
sS'02013'
p1646
I31
sS'04889'
p1647
I19
sS'04888'
p1648
I19
sS'04881'
p1649
I19
sS'04880'
p1650
I19
sS'04883'
p1651
I19
sS'04882'
p1652
I19
sS'04885'
p1653
I19
sS'04884'
p1654
I19
sS'04887'
p1655
I19
sS'04886'
p1656
I19
sS'02331'
p1657
I35
sS'02330'
p1658
I35
sS'02333'
p1659
I35
sS'02332'
p1660
I35
sS'02335'
p1661
I35
sS'02334'
p1662
I35
sS'02337'
p1663
I35
sS'02336'
p1664
I35
sS'02339'
p1665
I36
sS'02338'
p1666
I36
sS'03759'
p1667
I4
sS'01268'
p1668
I14
sS'01269'
p1669
I14
sS'01262'
p1670
I13
sS'02489'
p1671
I37
sS'02488'
p1672
I37
sS'02487'
p1673
I37
sS'02486'
p1674
I37
sS'02485'
p1675
I37
sS'02484'
p1676
I37
sS'02483'
p1677
I37
sS'02482'
p1678
I37
sS'02481'
p1679
I37
sS'02480'
p1680
I37
sS'05590'
p1681
I24
sS'05591'
p1682
I24
sS'05592'
p1683
I24
sS'05593'
p1684
I24
sS'05594'
p1685
I24
sS'05595'
p1686
I24
sS'05596'
p1687
I24
sS'05597'
p1688
I24
sS'05598'
p1689
I24
sS'05599'
p1690
I24
sS'01680'
p1691
I27
sS'01681'
p1692
I27
sS'01682'
p1693
I27
sS'01683'
p1694
I27
sS'01684'
p1695
I27
sS'01685'
p1696
I27
sS'01686'
p1697
I27
sS'01687'
p1698
I27
sS'01688'
p1699
I27
sS'01689'
p1700
I27
sS'03826'
p1701
I5
sS'03827'
p1702
I5
sS'03824'
p1703
I5
sS'03825'
p1704
I5
sS'03822'
p1705
I5
sS'03823'
p1706
I5
sS'03820'
p1707
I5
sS'03821'
p1708
I5
sS'03828'
p1709
I5
sS'03829'
p1710
I5
sS'05378'
p1711
I4
sS'05379'
p1712
I5
sS'05374'
p1713
I4
sS'05375'
p1714
I4
sS'05376'
p1715
I4
sS'05377'
p1716
I4
sS'05370'
p1717
I4
sS'05371'
p1718
I4
sS'05372'
p1719
I4
sS'05373'
p1720
I4
sS'00229'
p1721
I40
sS'00228'
p1722
I40
sS'00221'
p1723
I40
sS'00220'
p1724
I40
sS'00223'
p1725
I40
sS'00222'
p1726
I40
sS'00225'
p1727
I40
sS'00224'
p1728
I40
sS'00227'
p1729
I40
sS'00226'
p1730
I40
sS'05161'
p1731
I31
sS'05160'
p1732
I31
sS'05163'
p1733
I31
sS'05162'
p1734
I31
sS'05165'
p1735
I31
sS'05164'
p1736
I31
sS'05167'
p1737
I31
sS'05166'
p1738
I31
sS'05169'
p1739
I32
sS'05168'
p1740
I31
sS'04562'
p1741
I12
sS'04563'
p1742
I12
sS'04560'
p1743
I12
sS'04561'
p1744
I12
sS'04566'
p1745
I13
sS'04567'
p1746
I13
sS'04564'
p1747
I12
sS'04565'
p1748
I13
sS'04568'
p1749
I13
sS'04569'
p1750
I13
sS'00412'
p1751
I29
sS'00413'
p1752
I30
sS'00410'
p1753
I29
sS'00411'
p1754
I29
sS'00416'
p1755
I30
sS'00417'
p1756
I30
sS'00414'
p1757
I30
sS'00415'
p1758
I30
sS'00418'
p1759
I30
sS'00419'
p1760
I30
sS'02670'
p1761
I39
sS'02671'
p1762
I39
sS'02672'
p1763
I39
sS'02673'
p1764
I39
sS'02674'
p1765
I39
sS'02675'
p1766
I39
sS'02676'
p1767
I39
sS'02677'
p1768
I39
sS'02678'
p1769
I39
sS'02679'
p1770
I39
sS'04788'
p1771
I17
sS'04789'
p1772
I17
sS'04786'
p1773
I17
sS'04787'
p1774
I17
sS'04784'
p1775
I17
sS'04785'
p1776
I17
sS'04782'
p1777
I17
sS'04783'
p1778
I17
sS'04780'
p1779
I17
sS'04781'
p1780
I17
sS'05785'
p1781
I30
sS'05784'
p1782
I30
sS'05787'
p1783
I30
sS'05786'
p1784
I30
sS'05781'
p1785
I30
sS'05780'
p1786
I30
sS'05783'
p1787
I30
sS'05782'
p1788
I30
sS'05789'
p1789
I30
sS'05788'
p1790
I30
sS'01095'
p1791
I7
sS'01094'
p1792
I7
sS'01097'
p1793
I7
sS'01096'
p1794
I7
sS'01091'
p1795
I7
sS'01090'
p1796
I6
sS'01093'
p1797
I7
sS'01092'
p1798
I7
sS'01099'
p1799
I8
sS'01098'
p1800
I7
sS'03783'
p1801
I5
sS'03782'
p1802
I5
sS'03781'
p1803
I5
sS'03780'
p1804
I5
sS'03039'
p1805
I2
sS'03038'
p1806
I2
sS'03785'
p1807
I5
sS'03784'
p1808
I5
sS'03035'
p1809
I2
sS'03034'
p1810
I2
sS'03037'
p1811
I2
sS'03036'
p1812
I2
sS'03031'
p1813
I2
sS'03030'
p1814
I2
sS'03033'
p1815
I2
sS'03032'
p1816
I2
sS'01323'
p1817
I18
sS'01322'
p1818
I17
sS'01321'
p1819
I17
sS'01320'
p1820
I17
sS'01327'
p1821
I18
sS'01326'
p1822
I18
sS'01325'
p1823
I18
sS'01324'
p1824
I18
sS'02920'
p1825
I1
sS'02921'
p1826
I1
sS'01329'
p1827
I18
sS'01328'
p1828
I18
sS'02924'
p1829
I1
sS'02925'
p1830
I1
sS'02926'
p1831
I1
sS'02927'
p1832
I1
sS'03259'
p1833
I3
sS'03258'
p1834
I3
sS'03251'
p1835
I3
sS'03250'
p1836
I3
sS'03253'
p1837
I3
sS'03252'
p1838
I3
sS'03255'
p1839
I3
sS'03254'
p1840
I3
sS'03257'
p1841
I3
sS'03256'
p1842
I3
sS'02078'
p1843
I32
sS'02079'
p1844
I32
sS'02072'
p1845
I32
sS'02073'
p1846
I32
sS'02070'
p1847
I32
sS'02071'
p1848
I32
sS'02076'
p1849
I32
sS'02077'
p1850
I32
sS'02074'
p1851
I32
sS'02075'
p1852
I32
sS'00782'
p1853
I8
sS'00783'
p1854
I8
sS'00780'
p1855
I8
sS'00781'
p1856
I8
sS'00786'
p1857
I8
sS'00787'
p1858
I8
sS'00784'
p1859
I8
sS'00785'
p1860
I8
sS'00788'
p1861
I8
sS'00789'
p1862
I8
sS'02319'
p1863
I35
sS'02318'
p1864
I35
sS'02317'
p1865
I35
sS'02316'
p1866
I35
sS'02315'
p1867
I35
sS'02314'
p1868
I35
sS'02313'
p1869
I35
sS'02312'
p1870
I35
sS'02311'
p1871
I35
sS'02310'
p1872
I35
sS'01525'
p1873
I25
sS'01524'
p1874
I25
sS'01527'
p1875
I25
sS'01526'
p1876
I25
sS'01521'
p1877
I25
sS'01520'
p1878
I25
sS'01523'
p1879
I25
sS'01522'
p1880
I25
sS'01529'
p1881
I25
sS'01528'
p1882
I25
sS'05578'
p1883
I24
sS'05579'
p1884
I24
sS'05576'
p1885
I24
sS'05577'
p1886
I24
sS'05574'
p1887
I24
sS'05575'
p1888
I24
sS'05572'
p1889
I24
sS'05573'
p1890
I24
sS'05570'
p1891
I24
sS'05571'
p1892
I24
sS'01668'
p1893
I27
sS'01669'
p1894
I27
sS'01666'
p1895
I27
sS'01667'
p1896
I27
sS'01664'
p1897
I27
sS'01665'
p1898
I27
sS'01662'
p1899
I27
sS'01663'
p1900
I27
sS'01660'
p1901
I27
sS'01661'
p1902
I27
sS'03808'
p1903
I5
sS'03809'
p1904
I5
sS'03804'
p1905
I5
sS'03805'
p1906
I5
sS'03806'
p1907
I5
sS'03807'
p1908
I5
sS'03800'
p1909
I5
sS'03801'
p1910
I5
sS'03802'
p1911
I5
sS'03803'
p1912
I5
sS'05318'
p1913
I1
sS'05319'
p1914
I1
sS'05312'
p1915
I1
sS'05313'
p1916
I1
sS'05310'
p1917
I1
sS'05311'
p1918
I1
sS'05316'
p1919
I1
sS'05317'
p1920
I1
sS'05314'
p1921
I1
sS'05315'
p1922
I1
sS'04045'
p1923
I7
sS'04044'
p1924
I7
sS'04047'
p1925
I7
sS'04046'
p1926
I7
sS'04041'
p1927
I7
sS'04040'
p1928
I7
sS'04043'
p1929
I7
sS'04042'
p1930
I7
sS'04049'
p1931
I8
sS'04048'
p1932
I8
sS'00207'
p1933
I39
sS'00206'
p1934
I39
sS'00205'
p1935
I39
sS'00204'
p1936
I39
sS'00203'
p1937
I39
sS'00202'
p1938
I39
sS'00201'
p1939
I39
sS'00200'
p1940
I39
sS'00209'
p1941
I40
sS'00208'
p1942
I39
sS'05149'
p1943
I30
sS'05148'
p1944
I30
sS'05147'
p1945
I29
sS'05146'
p1946
I29
sS'05145'
p1947
I29
sS'05144'
p1948
I29
sS'05143'
p1949
I29
sS'05142'
p1950
I29
sS'05141'
p1951
I29
sS'05140'
p1952
I29
sS'04548'
p1953
I12
sS'04549'
p1954
I12
sS'04238'
p1955
I9
sS'04239'
p1956
I9
sS'04540'
p1957
I12
sS'04541'
p1958
I12
sS'04234'
p1959
I9
sS'04235'
p1960
I9
sS'04232'
p1961
I9
sS'04233'
p1962
I9
sS'04546'
p1963
I12
sS'04231'
p1964
I9
sS'00438'
p1965
I31
sS'00439'
p1966
I31
sS'00430'
p1967
I30
sS'00431'
p1968
I30
sS'00432'
p1969
I30
sS'00433'
p1970
I30
sS'00434'
p1971
I30
sS'00435'
p1972
I31
sS'00436'
p1973
I31
sS'00437'
p1974
I31
sS'02698'
p1975
I39
sS'02699'
p1976
I39
sS'02696'
p1977
I39
sS'02697'
p1978
I39
sS'02694'
p1979
I39
sS'02695'
p1980
I39
sS'02692'
p1981
I39
sS'02693'
p1982
I39
sS'02690'
p1983
I39
sS'02691'
p1984
I39
sS'04539'
p1985
I12
sS'04538'
p1986
I12
sS'03019'
p1987
I2
sS'03018'
p1988
I2
sS'03013'
p1989
I2
sS'03012'
p1990
I2
sS'03011'
p1991
I2
sS'03010'
p1992
I2
sS'03017'
p1993
I2
sS'03016'
p1994
I2
sS'03015'
p1995
I2
sS'03014'
p1996
I2
sS'04288'
p1997
I9
sS'01349'
p1998
I22
sS'01348'
p1999
I22
sS'01341'
p2000
I22
sS'01340'
p2001
I22
sS'01343'
p2002
I22
sS'01342'
p2003
I22
sS'01345'
p2004
I22
sS'01344'
p2005
I22
sS'01347'
p2006
I22
sS'01346'
p2007
I22
sS'03277'
p2008
I3
sS'03276'
p2009
I3
sS'03275'
p2010
I3
sS'03274'
p2011
I3
sS'03273'
p2012
I3
sS'03272'
p2013
I3
sS'03271'
p2014
I3
sS'03270'
p2015
I3
sS'03279'
p2016
I3
sS'03278'
p2017
I3
sS'02623'
p2018
I38
sS'02622'
p2019
I38
sS'02050'
p2020
I32
sS'02051'
p2021
I32
sS'02052'
p2022
I32
sS'02053'
p2023
I32
sS'02054'
p2024
I32
sS'02055'
p2025
I32
sS'02056'
p2026
I32
sS'02057'
p2027
I32
sS'02058'
p2028
I32
sS'02059'
p2029
I32
sS'02629'
p2030
I38
sS'02628'
p2031
I38
sS'04849'
p2032
I18
sS'04848'
p2033
I18
sS'04845'
p2034
I18
sS'04844'
p2035
I18
sS'04847'
p2036
I18
sS'04846'
p2037
I18
sS'04841'
p2038
I18
sS'04840'
p2039
I18
sS'04843'
p2040
I18
sS'04842'
p2041
I18
sS'03400'
p2042
I3
sS'03401'
p2043
I3
sS'03402'
p2044
I3
sS'03151'
p2045
I2
sS'03404'
p2046
I3
sS'03405'
p2047
I3
sS'03406'
p2048
I3
sS'03407'
p2049
I3
sS'01503'
p2050
I24
sS'01502'
p2051
I24
sS'01501'
p2052
I24
sS'01500'
p2053
I24
sS'01507'
p2054
I24
sS'01506'
p2055
I24
sS'01505'
p2056
I24
sS'01504'
p2057
I24
sS'01509'
p2058
I24
sS'01508'
p2059
I24
sS'05554'
p2060
I23
sS'05555'
p2061
I23
sS'05556'
p2062
I23
sS'05557'
p2063
I23
sS'05550'
p2064
I23
sS'05551'
p2065
I23
sS'05552'
p2066
I23
sS'05553'
p2067
I23
sS'05558'
p2068
I23
sS'05559'
p2069
I23
sS'01644'
p2070
I27
sS'01645'
p2071
I27
sS'01646'
p2072
I27
sS'01647'
p2073
I27
sS'01640'
p2074
I27
sS'01641'
p2075
I27
sS'01642'
p2076
I27
sS'01643'
p2077
I27
sS'05082'
p2078
I26
sS'05083'
p2079
I26
sS'05080'
p2080
I26
sS'05081'
p2081
I26
sS'01648'
p2082
I27
sS'05087'
p2083
I26
sS'05084'
p2084
I26
sS'05085'
p2085
I26
sS'03868'
p2086
I5
sS'03869'
p2087
I5
sS'03862'
p2088
I5
sS'03863'
p2089
I5
sS'03860'
p2090
I5
sS'03861'
p2091
I5
sS'03866'
p2092
I5
sS'03867'
p2093
I5
sS'03864'
p2094
I5
sS'03865'
p2095
I5
sS'05330'
p2096
I2
sS'05331'
p2097
I2
sS'05332'
p2098
I2
sS'05333'
p2099
I2
sS'05334'
p2100
I2
sS'05335'
p2101
I2
sS'05336'
p2102
I2
sS'05337'
p2103
I2
sS'05338'
p2104
I2
sS'05339'
p2105
I2
sS'04687'
p2106
I15
sS'04686'
p2107
I15
sS'04685'
p2108
I15
sS'04684'
p2109
I15
sS'04683'
p2110
I15
sS'04682'
p2111
I15
sS'04681'
p2112
I15
sS'04680'
p2113
I15
sS'04689'
p2114
I15
sS'04688'
p2115
I15
sS'00597'
p2116
I39
sS'00596'
p2117
I39
sS'00595'
p2118
I39
sS'00594'
p2119
I39
sS'00593'
p2120
I39
sS'00592'
p2121
I39
sS'00591'
p2122
I38
sS'00590'
p2123
I38
sS'00599'
p2124
I39
sS'00598'
p2125
I39
sS'02735'
p2126
I40
sS'02734'
p2127
I40
sS'02737'
p2128
I40
sS'02736'
p2129
I40
sS'02731'
p2130
I40
sS'02730'
p2131
I40
sS'02733'
p2132
I40
sS'02732'
p2133
I40
sS'02739'
p2134
I40
sS'02738'
p2135
I40
sS'04063'
p2136
I8
sS'04062'
p2137
I8
sS'04061'
p2138
I8
sS'04060'
p2139
I8
sS'04067'
p2140
I8
sS'04066'
p2141
I8
sS'04065'
p2142
I8
sS'04064'
p2143
I8
sS'04069'
p2144
I8
sS'04068'
p2145
I8
sS'03488'
p2146
I3
sS'03489'
p2147
I3
sS'03480'
p2148
I3
sS'03481'
p2149
I3
sS'03482'
p2150
I3
sS'03483'
p2151
I3
sS'03484'
p2152
I3
sS'03485'
p2153
I3
sS'03486'
p2154
I3
sS'03487'
p2155
I3
sS'02508'
p2156
I37
sS'02509'
p2157
I37
sS'02506'
p2158
I37
sS'02507'
p2159
I37
sS'02504'
p2160
I37
sS'02505'
p2161
I37
sS'02502'
p2162
I37
sS'02503'
p2163
I37
sS'02500'
p2164
I37
sS'02501'
p2165
I37
sS'01789'
p2166
I29
sS'01788'
p2167
I29
sS'01785'
p2168
I29
sS'01784'
p2169
I29
sS'04214'
p2170
I9
sS'04215'
p2171
I9
sS'04216'
p2172
I9
sS'04217'
p2173
I9
sS'04210'
p2174
I9
sS'04211'
p2175
I9
sS'04212'
p2176
I9
sS'04213'
p2177
I9
sS'04218'
p2178
I9
sS'04219'
p2179
I9
sS'03071'
p2180
I2
sS'03070'
p2181
I2
sS'03073'
p2182
I2
sS'03072'
p2183
I2
sS'03075'
p2184
I2
sS'03074'
p2185
I2
sS'03077'
p2186
I2
sS'03076'
p2187
I2
sS'03079'
p2188
I2
sS'03078'
p2189
I2
sS'01367'
p2190
I22
sS'01366'
p2191
I22
sS'01365'
p2192
I22
sS'01364'
p2193
I22
sS'01363'
p2194
I22
sS'01362'
p2195
I22
sS'01361'
p2196
I22
sS'01360'
p2197
I22
sS'01369'
p2198
I22
sS'01368'
p2199
I22
sS'03299'
p2200
I3
sS'03298'
p2201
I3
sS'03295'
p2202
I3
sS'03294'
p2203
I3
sS'03297'
p2204
I3
sS'03296'
p2205
I3
sS'03291'
p2206
I3
sS'03290'
p2207
I3
sS'03293'
p2208
I3
sS'03292'
p2209
I3
sS'04144'
p2210
I8
sS'04145'
p2211
I8
sS'04146'
p2212
I8
sS'04147'
p2213
I8
sS'04140'
p2214
I8
sS'04413'
p2215
I10
sS'00016'
p2216
I35
sS'00017'
p2217
I35
sS'00014'
p2218
I35
sS'00015'
p2219
I35
sS'00012'
p2220
I35
sS'04410'
p2221
I10
sS'00010'
p2222
I34
sS'00011'
p2223
I34
sS'04143'
p2224
I8
sS'00018'
p2225
I35
sS'00019'
p2226
I35
sS'04869'
p2227
I19
sS'04868'
p2228
I19
sS'04863'
p2229
I18
sS'04862'
p2230
I18
sS'04861'
p2231
I18
sS'04860'
p2232
I18
sS'04867'
p2233
I19
sS'04866'
p2234
I19
sS'04865'
p2235
I19
sS'04864'
p2236
I18
sS'01569'
p2237
I25
sS'01568'
p2238
I25
sS'01561'
p2239
I25
sS'01560'
p2240
I25
sS'01563'
p2241
I25
sS'01562'
p2242
I25
sS'01565'
p2243
I25
sS'01564'
p2244
I25
sS'01567'
p2245
I25
sS'01566'
p2246
I25
sS'05532'
p2247
I23
sS'05533'
p2248
I23
sS'05530'
p2249
I23
sS'05531'
p2250
I23
sS'05536'
p2251
I23
sS'05537'
p2252
I23
sS'05534'
p2253
I23
sS'05535'
p2254
I23
sS'05538'
p2255
I23
sS'05539'
p2256
I23
sS'01622'
p2257
I27
sS'01623'
p2258
I27
sS'01620'
p2259
I27
sS'01621'
p2260
I27
sS'01626'
p2261
I27
sS'01627'
p2262
I27
sS'01624'
p2263
I27
sS'01625'
p2264
I27
sS'01628'
p2265
I27
sS'01629'
p2266
I27
sS'03840'
p2267
I5
sS'03841'
p2268
I5
sS'03842'
p2269
I5
sS'03843'
p2270
I5
sS'03844'
p2271
I5
sS'03845'
p2272
I5
sS'03846'
p2273
I5
sS'03847'
p2274
I5
sS'03848'
p2275
I5
sS'03849'
p2276
I5
sS'01198'
p2277
I10
sS'01199'
p2278
I10
sS'01190'
p2279
I10
sS'01191'
p2280
I10
sS'01192'
p2281
I10
sS'01193'
p2282
I10
sS'01194'
p2283
I10
sS'01195'
p2284
I10
sS'01196'
p2285
I10
sS'01197'
p2286
I10
sS'04669'
p2287
I15
sS'04668'
p2288
I15
sS'04665'
p2289
I15
sS'04664'
p2290
I15
sS'04667'
p2291
I15
sS'04666'
p2292
I15
sS'04661'
p2293
I15
sS'04660'
p2294
I15
sS'04663'
p2295
I15
sS'04662'
p2296
I15
sS'00579'
p2297
I38
sS'00578'
p2298
I37
sS'00575'
p2299
I37
sS'00574'
p2300
I37
sS'00577'
p2301
I37
sS'00576'
p2302
I37
sS'00571'
p2303
I37
sS'00570'
p2304
I37
sS'00573'
p2305
I37
sS'00572'
p2306
I37
sS'02713'
p2307
I40
sS'02712'
p2308
I40
sS'02711'
p2309
I39
sS'02710'
p2310
I40
sS'02717'
p2311
I40
sS'02716'
p2312
I40
sS'02715'
p2313
I40
sS'02714'
p2314
I40
sS'02719'
p2315
I40
sS'02718'
p2316
I40
sS'04009'
p2317
I6
sS'04008'
p2318
I6
sS'04001'
p2319
I6
sS'04000'
p2320
I6
sS'04003'
p2321
I6
sS'04002'
p2322
I6
sS'04005'
p2323
I6
sS'04004'
p2324
I6
sS'04007'
p2325
I6
sS'04006'
p2326
I6
sS'02026'
p2327
I31
sS'02155'
p2328
I34
sS'02154'
p2329
I34
sS'02157'
p2330
I34
sS'02156'
p2331
I34
sS'02151'
p2332
I34
sS'02150'
p2333
I34
sS'02153'
p2334
I34
sS'02152'
p2335
I34
sS'02159'
p2336
I34
sS'02158'
p2337
I34
sS'00809'
p2338
I9
sS'00808'
p2339
I9
sS'00805'
p2340
I9
sS'00804'
p2341
I9
sS'00807'
p2342
I9
sS'00806'
p2343
I9
sS'00801'
p2344
I8
sS'00800'
p2345
I8
sS'00803'
p2346
I9
sS'00802'
p2347
I9
sS'02524'
p2348
I37
sS'02525'
p2349
I37
sS'02526'
p2350
I37
sS'02527'
p2351
I37
sS'02520'
p2352
I37
sS'02521'
p2353
I37
sS'02522'
p2354
I37
sS'02523'
p2355
I37
sS'04236'
p2356
I9
sS'02528'
p2357
I37
sS'02529'
p2358
I37
sS'04237'
p2359
I9
sS'05275'
p2360
I38
sS'05274'
p2361
I38
sS'05277'
p2362
I38
sS'05276'
p2363
I38
sS'05271'
p2364
I38
sS'05270'
p2365
I38
sS'05273'
p2366
I38
sS'05272'
p2367
I38
sS'05279'
p2368
I39
sS'05278'
p2369
I38
sS'04272'
p2370
I9
sS'04273'
p2371
I9
sS'04270'
p2372
I9
sS'04271'
p2373
I9
sS'04276'
p2374
I9
sS'04277'
p2375
I9
sS'04274'
p2376
I9
sS'04275'
p2377
I9
sS'04278'
p2378
I9
sS'04279'
p2379
I9
sS'03729'
p2380
I4
sS'03728'
p2381
I4
sS'03059'
p2382
I2
sS'03058'
p2383
I2
sS'03057'
p2384
I2
sS'03056'
p2385
I2
sS'03055'
p2386
I2
sS'03726'
p2387
I4
sS'03053'
p2388
I2
sS'03720'
p2389
I4
sS'03051'
p2390
I2
sS'03050'
p2391
I2
sS'01389'
p2392
I23
sS'01388'
p2393
I23
sS'01385'
p2394
I23
sS'01384'
p2395
I23
sS'01387'
p2396
I23
sS'01386'
p2397
I23
sS'01381'
p2398
I22
sS'01380'
p2399
I22
sS'01383'
p2400
I22
sS'01382'
p2401
I22
sS'04496'
p2402
I11
sS'04497'
p2403
I11
sS'04494'
p2404
I11
sS'04495'
p2405
I11
sS'04492'
p2406
I11
sS'04493'
p2407
I11
sS'04490'
p2408
I11
sS'04491'
p2409
I11
sS'04498'
p2410
I11
sS'04499'
p2411
I11
sS'00386'
p2412
I27
sS'00387'
p2413
I27
sS'00384'
p2414
I27
sS'00385'
p2415
I27
sS'00382'
p2416
I27
sS'00383'
p2417
I27
sS'00380'
p2418
I27
sS'00381'
p2419
I27
sS'00388'
p2420
I28
sS'00389'
p2421
I28
sS'02898'
p2422
I1
sS'02899'
p2423
I1
sS'02894'
p2424
I1
sS'02895'
p2425
I1
sS'02896'
p2426
I1
sS'02897'
p2427
I1
sS'02890'
p2428
I1
sS'02891'
p2429
I1
sS'02892'
p2430
I1
sS'02893'
p2431
I1
sS'00038'
p2432
I35
sS'00039'
p2433
I35
sS'00034'
p2434
I35
sS'00035'
p2435
I35
sS'00036'
p2436
I35
sS'00037'
p2437
I35
sS'00030'
p2438
I35
sS'00031'
p2439
I35
sS'00032'
p2440
I35
sS'00033'
p2441
I35
sS'02094'
p2442
I33
sS'02095'
p2443
I33
sS'02096'
p2444
I33
sS'02097'
p2445
I33
sS'02090'
p2446
I33
sS'02091'
p2447
I33
sS'02092'
p2448
I33
sS'02093'
p2449
I33
sS'02098'
p2450
I33
sS'02099'
p2451
I33
sS'04801'
p2452
I17
sS'04800'
p2453
I17
sS'04803'
p2454
I17
sS'04802'
p2455
I17
sS'04805'
p2456
I17
sS'04804'
p2457
I17
sS'04807'
p2458
I17
sS'04806'
p2459
I17
sS'04809'
p2460
I17
sS'04808'
p2461
I17
sS'05125'
p2462
I28
sS'05124'
p2463
I28
sS'05127'
p2464
I28
sS'05126'
p2465
I28
sS'05121'
p2466
I28
sS'05120'
p2467
I28
sS'01547'
p2468
I25
sS'01546'
p2469
I25
sS'01545'
p2470
I25
sS'01544'
p2471
I25
sS'01543'
p2472
I25
sS'01542'
p2473
I25
sS'01813'
p2474
I29
sS'01812'
p2475
I29
sS'05122'
p2476
I28
sS'01819'
p2477
I29
sS'01818'
p2478
I29
sS'01549'
p2479
I25
sS'01548'
p2480
I25
sS'05518'
p2481
I23
sS'05519'
p2482
I23
sS'05048'
p2483
I25
sS'05049'
p2484
I25
sS'05046'
p2485
I25
sS'05047'
p2486
I25
sS'05044'
p2487
I25
sS'05045'
p2488
I25
sS'05042'
p2489
I25
sS'05043'
p2490
I25
sS'05516'
p2491
I23
sS'05517'
p2492
I23
sS'01608'
p2493
I26
sS'01609'
p2494
I26
sS'01600'
p2495
I26
sS'01601'
p2496
I26
sS'01602'
p2497
I26
sS'01603'
p2498
I26
sS'01604'
p2499
I26
sS'01605'
p2500
I26
sS'01606'
p2501
I26
sS'01607'
p2502
I26
sS'00636'
p2503
I40
sS'00637'
p2504
I1
sS'00634'
p2505
I40
sS'00635'
p2506
I40
sS'00632'
p2507
I40
sS'00633'
p2508
I40
sS'00630'
p2509
I40
sS'00631'
p2510
I40
sS'00638'
p2511
I1
sS'00639'
p2512
I1
sS'04399'
p2513
I10
sS'04398'
p2514
I10
sS'04649'
p2515
I15
sS'04648'
p2516
I15
sS'04643'
p2517
I14
sS'04642'
p2518
I14
sS'04641'
p2519
I14
sS'04640'
p2520
I14
sS'04395'
p2521
I10
sS'04394'
p2522
I10
sS'04397'
p2523
I10
sS'04396'
p2524
I10
sS'00559'
p2525
I37
sS'00558'
p2526
I37
sS'00553'
p2527
I37
sS'00552'
p2528
I37
sS'00551'
p2529
I37
sS'00550'
p2530
I37
sS'00557'
p2531
I37
sS'00556'
p2532
I37
sS'00555'
p2533
I37
sS'00554'
p2534
I37
sS'02779'
p2535
I1
sS'02778'
p2536
I1
sS'02771'
p2537
I1
sS'02770'
p2538
I1
sS'02773'
p2539
I1
sS'02772'
p2540
I1
sS'02775'
p2541
I1
sS'02774'
p2542
I1
sS'02777'
p2543
I1
sS'02776'
p2544
I1
sS'04027'
p2545
I6
sS'04026'
p2546
I6
sS'04025'
p2547
I6
sS'04024'
p2548
I6
sS'04023'
p2549
I6
sS'04022'
p2550
I6
sS'04021'
p2551
I6
sS'04020'
p2552
I6
sS'04029'
p2553
I6
sS'04028'
p2554
I6
sS'03737'
p2555
I4
sS'03556'
p2556
I4
sS'03557'
p2557
I4
sS'03554'
p2558
I4
sS'03555'
p2559
I4
sS'03552'
p2560
I4
sS'03553'
p2561
I4
sS'03550'
p2562
I4
sS'03551'
p2563
I4
sS'03558'
p2564
I4
sS'03559'
p2565
I4
sS'04482'
p2566
I11
sS'03731'
p2567
I4
sS'00390'
p2568
I28
sS'02173'
p2569
I34
sS'02172'
p2570
I34
sS'02171'
p2571
I34
sS'02170'
p2572
I34
sS'02177'
p2573
I34
sS'02176'
p2574
I34
sS'02175'
p2575
I34
sS'02174'
p2576
I34
sS'02179'
p2577
I34
sS'02178'
p2578
I34
sS'00829'
p2579
I9
sS'00828'
p2580
I9
sS'00823'
p2581
I9
sS'00822'
p2582
I9
sS'00821'
p2583
I9
sS'00820'
p2584
I9
sS'00827'
p2585
I9
sS'00826'
p2586
I9
sS'00825'
p2587
I9
sS'00824'
p2588
I9
sS'02542'
p2589
I37
sS'02543'
p2590
I37
sS'02540'
p2591
I37
sS'02541'
p2592
I37
sS'02546'
p2593
I37
sS'02547'
p2594
I37
sS'02544'
p2595
I37
sS'02545'
p2596
I37
sS'02548'
p2597
I37
sS'02549'
p2598
I37
sS'05253'
p2599
I37
sS'05252'
p2600
I37
sS'05251'
p2601
I36
sS'05250'
p2602
I36
sS'05709'
p2603
I28
sS'05708'
p2604
I28
sS'05255'
p2605
I37
sS'05254'
p2606
I37
sS'05705'
p2607
I28
sS'05704'
p2608
I28
sS'05707'
p2609
I28
sS'05258'
p2610
I37
sS'05701'
p2611
I28
sS'05700'
p2612
I28
sS'05703'
p2613
I28
sS'05702'
p2614
I28
sS'05837'
p2615
I31
sS'01019'
p2616
I4
sS'01018'
p2617
I4
sS'05836'
p2618
I31
sS'01015'
p2619
I4
sS'01014'
p2620
I4
sS'01017'
p2621
I4
sS'01016'
p2622
I4
sS'01011'
p2623
I4
sS'01010'
p2624
I4
sS'01013'
p2625
I4
sS'01012'
p2626
I4
sS'04258'
p2627
I9
sS'04259'
p2628
I9
sS'05834'
p2629
I31
sS'04250'
p2630
I9
sS'04251'
p2631
I9
sS'04252'
p2632
I9
sS'04253'
p2633
I9
sS'04254'
p2634
I9
sS'04255'
p2635
I9
sS'04256'
p2636
I9
sS'04257'
p2637
I9
sS'03709'
p2638
I4
sS'03708'
p2639
I4
sS'05831'
p2640
I31
sS'03703'
p2641
I4
sS'03702'
p2642
I4
sS'03701'
p2643
I4
sS'05830'
p2644
I31
sS'03707'
p2645
I4
sS'03706'
p2646
I4
sS'03705'
p2647
I4
sS'03704'
p2648
I4
sS'04526'
p2649
I12
sS'04527'
p2650
I12
sS'04524'
p2651
I12
sS'04525'
p2652
I12
sS'04522'
p2653
I12
sS'04523'
p2654
I12
sS'04520'
p2655
I11
sS'04521'
p2656
I11
sS'00058'
p2657
I36
sS'00059'
p2658
I36
sS'00052'
p2659
I36
sS'00053'
p2660
I36
sS'00050'
p2661
I36
sS'00051'
p2662
I36
sS'00056'
p2663
I36
sS'00057'
p2664
I36
sS'00054'
p2665
I36
sS'00055'
p2666
I36
sS'04829'
p2667
I18
sS'04828'
p2668
I18
sS'04827'
p2669
I18
sS'04826'
p2670
I18
sS'04825'
p2671
I18
sS'04824'
p2672
I18
sS'04823'
p2673
I18
sS'04822'
p2674
I18
sS'04821'
p2675
I18
sS'04820'
p2676
I18
sS'04876'
p2677
I19
sS'04877'
p2678
I19
sS'04878'
p2679
I19
sS'04879'
p2680
I19
sS'01833'
p2681
I29
sS'01832'
p2682
I29
sS'01831'
p2683
I29
sS'01830'
p2684
I29
sS'01837'
p2685
I29
sS'01836'
p2686
I29
sS'01835'
p2687
I29
sS'01834'
p2688
I29
sS'01839'
p2689
I29
sS'01838'
p2690
I29
sS'01649'
p2691
I27
sS'04748'
p2692
I16
sS'04749'
p2693
I16
sS'03884'
p2694
I5
sS'03885'
p2695
I5
sS'03886'
p2696
I5
sS'03887'
p2697
I5
sS'03880'
p2698
I5
sS'03881'
p2699
I5
sS'03882'
p2700
I5
sS'03883'
p2701
I5
sS'03657'
p2702
I4
sS'03888'
p2703
I5
sS'03889'
p2704
I5
sS'04746'
p2705
I16
sS'04747'
p2706
I16
sS'03656'
p2707
I4
sS'00618'
p2708
I39
sS'00619'
p2709
I39
sS'00614'
p2710
I39
sS'00615'
p2711
I39
sS'00616'
p2712
I39
sS'00617'
p2713
I39
sS'00610'
p2714
I39
sS'00611'
p2715
I39
sS'00612'
p2716
I39
sS'00613'
p2717
I39
sS'05064'
p2718
I25
sS'05065'
p2719
I25
sS'05066'
p2720
I25
sS'05067'
p2721
I25
sS'05060'
p2722
I25
sS'05061'
p2723
I25
sS'05062'
p2724
I25
sS'05063'
p2725
I25
sS'02281'
p2726
I35
sS'02280'
p2727
I35
sS'02283'
p2728
I35
sS'02282'
p2729
I35
sS'05068'
p2730
I25
sS'02284'
p2731
I35
sS'02287'
p2732
I35
sS'02286'
p2733
I35
sS'04621'
p2734
I14
sS'04620'
p2735
I14
sS'04623'
p2736
I14
sS'04622'
p2737
I14
sS'04625'
p2738
I14
sS'04624'
p2739
I14
sS'04627'
p2740
I14
sS'04626'
p2741
I14
sS'04629'
p2742
I14
sS'04628'
p2743
I14
sS'03653'
p2744
I4
sS'00530'
p2745
I36
sS'00533'
p2746
I36
sS'00532'
p2747
I36
sS'00535'
p2748
I36
sS'00534'
p2749
I36
sS'00537'
p2750
I36
sS'00536'
p2751
I36
sS'00539'
p2752
I36
sS'00538'
p2753
I36
sS'02757'
p2754
I1
sS'02756'
p2755
I1
sS'02755'
p2756
I1
sS'02754'
p2757
I1
sS'02753'
p2758
I1
sS'02752'
p2759
I1
sS'02751'
p2760
I1
sS'02750'
p2761
I1
sS'02759'
p2762
I1
sS'02758'
p2763
I1
sS'05392'
p2764
I7
sS'05393'
p2765
I7
sS'05390'
p2766
I6
sS'05391'
p2767
I6
sS'05396'
p2768
I7
sS'05397'
p2769
I7
sS'05394'
p2770
I7
sS'05395'
p2771
I7
sS'05398'
p2772
I8
sS'05399'
p2773
I7
sS'00289'
p2774
I2
sS'00288'
p2775
I2
sS'00287'
p2776
I2
sS'00286'
p2777
I2
sS'00285'
p2778
I2
sS'00284'
p2779
I2
sS'00283'
p2780
I2
sS'00282'
p2781
I2
sS'00281'
p2782
I2
sS'00280'
p2783
I2
sS'03390'
p2784
I3
sS'03391'
p2785
I3
sS'03392'
p2786
I3
sS'03393'
p2787
I3
sS'03394'
p2788
I3
sS'03395'
p2789
I3
sS'03396'
p2790
I3
sS'03397'
p2791
I3
sS'03398'
p2792
I3
sS'03399'
p2793
I3
sS'01226'
p2794
I11
sS'01227'
p2795
I11
sS'01224'
p2796
I11
sS'01225'
p2797
I11
sS'01222'
p2798
I11
sS'01223'
p2799
I11
sS'01220'
p2800
I11
sS'01221'
p2801
I11
sS'01228'
p2802
I11
sS'01229'
p2803
I11
sS'03578'
p2804
I4
sS'03579'
p2805
I4
sS'03574'
p2806
I4
sS'03575'
p2807
I4
sS'03576'
p2808
I4
sS'03577'
p2809
I4
sS'03570'
p2810
I4
sS'03571'
p2811
I4
sS'03572'
p2812
I4
sS'03573'
p2813
I4
sS'02119'
p2814
I33
sS'02118'
p2815
I33
sS'02111'
p2816
I33
sS'02110'
p2817
I33
sS'02113'
p2818
I33
sS'02112'
p2819
I33
sS'02115'
p2820
I33
sS'02114'
p2821
I33
sS'02117'
p2822
I33
sS'02116'
p2823
I33
sS'00841'
p2824
I10
sS'00840'
p2825
I10
sS'00843'
p2826
I10
sS'00842'
p2827
I10
sS'00845'
p2828
I10
sS'00844'
p2829
I10
sS'00847'
p2830
I10
sS'00846'
p2831
I10
sS'00849'
p2832
I11
sS'00848'
p2833
I10
sS'02568'
p2834
I38
sS'02569'
p2835
I38
sS'02560'
p2836
I38
sS'02561'
p2837
I38
sS'02562'
p2838
I38
sS'02563'
p2839
I38
sS'02564'
p2840
I38
sS'02565'
p2841
I38
sS'02566'
p2842
I38
sS'02567'
p2843
I38
sS'01798'
p2844
I29
sS'04312'
p2845
I9
sS'05239'
p2846
I36
sS'01792'
p2847
I29
sS'05729'
p2848
I29
sS'05728'
p2849
I29
sS'05643'
p2850
I26
sS'04318'
p2851
I9
sS'05723'
p2852
I28
sS'05722'
p2853
I28
sS'05721'
p2854
I28
sS'05720'
p2855
I28
sS'05727'
p2856
I29
sS'05726'
p2857
I28
sS'05725'
p2858
I28
sS'05724'
p2859
I28
sS'01039'
p2860
I4
sS'01038'
p2861
I4
sS'01033'
p2862
I4
sS'01032'
p2863
I4
sS'01031'
p2864
I4
sS'01030'
p2865
I4
sS'01037'
p2866
I4
sS'01036'
p2867
I4
sS'01035'
p2868
I4
sS'01034'
p2869
I4
sS'05231'
p2870
I35
sS'05230'
p2871
I35
sS'03761'
p2872
I4
sS'03760'
p2873
I4
sS'03763'
p2874
I4
sS'03762'
p2875
I4
sS'03765'
p2876
I5
sS'03764'
p2877
I4
sS'03767'
p2878
I5
sS'03766'
p2879
I5
sS'03769'
p2880
I5
sS'03768'
p2881
I5
sS'04131'
p2882
I8
sS'04130'
p2883
I8
sS'04133'
p2884
I8
sS'00070'
p2885
I37
sS'00071'
p2886
I37
sS'00072'
p2887
I37
sS'04420'
p2888
I10
sS'00074'
p2889
I37
sS'00075'
p2890
I37
sS'00076'
p2891
I37
sS'00077'
p2892
I37
sS'00078'
p2893
I37
sS'04135'
p2894
I8
sS'04134'
p2895
I8
sS'05507'
p2896
I22
sS'04425'
p2897
I10
sS'05506'
p2898
I22
sS'04424'
p2899
I10
sS'05505'
p2900
I22
sS'05504'
p2901
I22
sS'05503'
p2902
I22
sS'05502'
p2903
I22
sS'05501'
p2904
I22
sS'05052'
p2905
I25
sS'03185'
p2906
I2
sS'03184'
p2907
I2
sS'03187'
p2908
I2
sS'03186'
p2909
I2
sS'03181'
p2910
I2
sS'03180'
p2911
I2
sS'03183'
p2912
I2
sS'03182'
p2913
I2
sS'03189'
p2914
I2
sS'03188'
p2915
I2
sS'01859'
p2916
I29
sS'01858'
p2917
I29
sS'01589'
p2918
I26
sS'01588'
p2919
I26
sS'01851'
p2920
I29
sS'01850'
p2921
I29
sS'01853'
p2922
I29
sS'01852'
p2923
I29
sS'01855'
p2924
I29
sS'01854'
p2925
I29
sS'01857'
p2926
I29
sS'01856'
p2927
I29
sS'00988'
p2928
I3
sS'00989'
p2929
I3
sS'00984'
p2930
I3
sS'00985'
p2931
I3
sS'00986'
p2932
I3
sS'00987'
p2933
I3
sS'00980'
p2934
I3
sS'00981'
p2935
I3
sS'00982'
p2936
I3
sS'00983'
p2937
I3
sS'00678'
p2938
I2
sS'00679'
p2939
I2
sS'00672'
p2940
I2
sS'00673'
p2941
I2
sS'00670'
p2942
I2
sS'00671'
p2943
I2
sS'00676'
p2944
I2
sS'00677'
p2945
I2
sS'00674'
p2946
I2
sS'00675'
p2947
I2
sS'05002'
p2948
I23
sS'05003'
p2949
I23
sS'05000'
p2950
I23
sS'05001'
p2951
I23
sS'05006'
p2952
I24
sS'05007'
p2953
I24
sS'05004'
p2954
I23
sS'05005'
p2955
I24
sS'05008'
p2956
I24
sS'05009'
p2957
I24
sS'04359'
p2958
I10
sS'04358'
p2959
I10
sS'04609'
p2960
I14
sS'04608'
p2961
I13
sS'04355'
p2962
I10
sS'04354'
p2963
I10
sS'04357'
p2964
I10
sS'04356'
p2965
I10
sS'04351'
p2966
I10
sS'04350'
p2967
I10
sS'04353'
p2968
I10
sS'04352'
p2969
I10
sS'00519'
p2970
I36
sS'00518'
p2971
I36
sS'00517'
p2972
I36
sS'00516'
p2973
I35
sS'00515'
p2974
I35
sS'00514'
p2975
I35
sS'00513'
p2976
I35
sS'00512'
p2977
I35
sS'00511'
p2978
I35
sS'00510'
p2979
I35
sS'03378'
p2980
I3
sS'03379'
p2981
I3
sS'03376'
p2982
I3
sS'03377'
p2983
I3
sS'03374'
p2984
I3
sS'03375'
p2985
I3
sS'03372'
p2986
I3
sS'03373'
p2987
I3
sS'03370'
p2988
I3
sS'03371'
p2989
I3
sS'01208'
p2990
I10
sS'01209'
p2991
I10
sS'01204'
p2992
I10
sS'01205'
p2993
I10
sS'01206'
p2994
I10
sS'01207'
p2995
I10
sS'01200'
p2996
I10
sS'01201'
p2997
I10
sS'01202'
p2998
I10
sS'01203'
p2999
I10
sS'03518'
p3000
I4
sS'03519'
p3001
I4
sS'03512'
p3002
I4
sS'03513'
p3003
I4
sS'03510'
p3004
I4
sS'03511'
p3005
I4
sS'03516'
p3006
I4
sS'03517'
p3007
I4
sS'03514'
p3008
I4
sS'03515'
p3009
I4
sS'02137'
p3010
I34
sS'02136'
p3011
I34
sS'02135'
p3012
I34
sS'02134'
p3013
I34
sS'02133'
p3014
I34
sS'02132'
p3015
I34
sS'02131'
p3016
I34
sS'02130'
p3017
I33
sS'02139'
p3018
I34
sS'02138'
p3019
I34
sS'04980'
p3020
I23
sS'04981'
p3021
I23
sS'04982'
p3022
I23
sS'04983'
p3023
I23
sS'04984'
p3024
I23
sS'04985'
p3025
I23
sS'04986'
p3026
I23
sS'04987'
p3027
I23
sS'04988'
p3028
I23
sS'04989'
p3029
I23
sS'00869'
p3030
I11
sS'00868'
p3031
I11
sS'00867'
p3032
I11
sS'00866'
p3033
I11
sS'00865'
p3034
I11
sS'00864'
p3035
I11
sS'00863'
p3036
I11
sS'00862'
p3037
I11
sS'00861'
p3038
I11
sS'00860'
p3039
I11
sS'01446'
p3040
I24
sS'01447'
p3041
I24
sS'01444'
p3042
I24
sS'01445'
p3043
I24
sS'01442'
p3044
I24
sS'01443'
p3045
I24
sS'01440'
p3046
I24
sS'01441'
p3047
I24
sS'01448'
p3048
I24
sS'01449'
p3049
I24
sS'05500'
p3050
I22
sS'05741'
p3051
I29
sS'05216'
p3052
I35
sS'05215'
p3053
I35
sS'05214'
p3054
I35
sS'05213'
p3055
I35
sS'05744'
p3056
I29
sS'05747'
p3057
I29
sS'05210'
p3058
I34
sS'05749'
p3059
I29
sS'05748'
p3060
I29
sS'05219'
p3061
I35
sS'05218'
p3062
I35
sS'01051'
p3063
I5
sS'01050'
p3064
I5
sS'01053'
p3065
I5
sS'01052'
p3066
I5
sS'01055'
p3067
I5
sS'01054'
p3068
I5
sS'01057'
p3069
I5
sS'01056'
p3070
I5
sS'01059'
p3071
I5
sS'01058'
p3072
I5
sS'05740'
p3073
I29
sS'04166'
p3074
I8
sS'04167'
p3075
I8
sS'04164'
p3076
I8
sS'04165'
p3077
I8
sS'04162'
p3078
I8
sS'04163'
p3079
I8
sS'04160'
p3080
I8
sS'04161'
p3081
I8
sS'04168'
p3082
I8
sS'04169'
p3083
I8
sS'03749'
p3084
I4
sS'03748'
p3085
I4
sS'03747'
p3086
I4
sS'03746'
p3087
I4
sS'03745'
p3088
I4
sS'03744'
p3089
I4
sS'03743'
p3090
I4
sS'03742'
p3091
I4
sS'03741'
p3092
I4
sS'03740'
p3093
I4
sS'02838'
p3094
I1
sS'02839'
p3095
I1
sS'02836'
p3096
I1
sS'02837'
p3097
I1
sS'02834'
p3098
I1
sS'02835'
p3099
I1
sS'02832'
p3100
I1
sS'02833'
p3101
I1
sS'02830'
p3102
I1
sS'02831'
p3103
I1
sS'00098'
p3104
I37
sS'00099'
p3105
I37
sS'00096'
p3106
I37
sS'00097'
p3107
I37
sS'00094'
p3108
I37
sS'00095'
p3109
I37
sS'00092'
p3110
I37
sS'00093'
p3111
I37
sS'00090'
p3112
I37
sS'00091'
p3113
I37
sS'03725'
p3114
I4
sS'03724'
p3115
I4
sS'03040'
p3116
I2
sS'03727'
p3117
I4
sS'03054'
p3118
I2
sS'03721'
p3119
I4
sS'03052'
p3120
I2
sS'03723'
p3121
I4
sS'03722'
p3122
I4
sS'05640'
p3123
I26
sS'05641'
p3124
I26
sS'05642'
p3125
I26
sS'01877'
p3126
I30
sS'01876'
p3127
I30
sS'01875'
p3128
I30
sS'01874'
p3129
I30
sS'01873'
p3130
I30
sS'01872'
p3131
I30
sS'01871'
p3132
I30
sS'01870'
p3133
I30
sS'05644'
p3134
I26
sS'01879'
p3135
I30
sS'05645'
p3136
I26
sS'05646'
p3137
I26
sS'05647'
p3138
I26
sS'03046'
p3139
I2
sS'03431'
p3140
I3
sS'03430'
p3141
I3
sS'04605'
p3142
I13
sS'03433'
p3143
I3
sS'00650'
p3144
I1
sS'00651'
p3145
I1
sS'00652'
p3146
I1
sS'00653'
p3147
I1
sS'00654'
p3148
I1
sS'00655'
p3149
I1
sS'00656'
p3150
I2
sS'00657'
p3151
I2
sS'04604'
p3152
I13
sS'02249'
p3153
I35
sS'02248'
p3154
I35
sS'02245'
p3155
I35
sS'02244'
p3156
I35
sS'02247'
p3157
I35
sS'02246'
p3158
I35
sS'02241'
p3159
I35
sS'02240'
p3160
I34
sS'02243'
p3161
I35
sS'02242'
p3162
I35
sS'05028'
p3163
I24
sS'05029'
p3164
I24
sS'05020'
p3165
I24
sS'05021'
p3166
I24
sS'05022'
p3167
I24
sS'05023'
p3168
I24
sS'05024'
p3169
I24
sS'05025'
p3170
I24
sS'05026'
p3171
I24
sS'05027'
p3172
I24
sS'03435'
p3173
I3
sS'04379'
p3174
I10
sS'04378'
p3175
I10
sS'04373'
p3176
I10
sS'04372'
p3177
I10
sS'04371'
p3178
I10
sS'04370'
p3179
I10
sS'04377'
p3180
I10
sS'04376'
p3181
I10
sS'04375'
p3182
I10
sS'04374'
p3183
I10
sS'04602'
p3184
I13
sS'02799'
p3185
I1
sS'02798'
p3186
I1
sS'02793'
p3187
I1
sS'02792'
p3188
I1
sS'02791'
p3189
I1
sS'02790'
p3190
I1
sS'02797'
p3191
I1
sS'02796'
p3192
I1
sS'02795'
p3193
I1
sS'02794'
p3194
I1
sS'05688'
p3195
I28
sS'05689'
p3196
I28
sS'05684'
p3197
I27
sS'05685'
p3198
I28
sS'05686'
p3199
I28
sS'05687'
p3200
I28
sS'05680'
p3201
I27
sS'05681'
p3202
I27
sS'05682'
p3203
I27
sS'05683'
p3204
I27
sS'03354'
p3205
I3
sS'03355'
p3206
I3
sS'03356'
p3207
I3
sS'03357'
p3208
I3
sS'03350'
p3209
I3
sS'03351'
p3210
I3
sS'03352'
p3211
I3
sS'03353'
p3212
I3
sS'03358'
p3213
I3
sS'03359'
p3214
I3
sS'03688'
p3215
I4
sS'03689'
p3216
I4
sS'03682'
p3217
I4
sS'03683'
p3218
I4
sS'03680'
p3219
I4
sS'03681'
p3220
I4
sS'03686'
p3221
I4
sS'03687'
p3222
I4
sS'03684'
p3223
I4
sS'03685'
p3224
I4
sS'04081'
p3225
I8
sS'04080'
p3226
I8
sS'04083'
p3227
I8
sS'04082'
p3228
I8
sS'04085'
p3229
I8
sS'04084'
p3230
I8
sS'04087'
p3231
I8
sS'04086'
p3232
I8
sS'04089'
p3233
I8
sS'01263'
p3234
I13
sS'01260'
p3235
I13
sS'01261'
p3236
I13
sS'01266'
p3237
I13
sS'01267'
p3238
I14
sS'01264'
p3239
I13
sS'01265'
p3240
I13
sS'03530'
p3241
I4
sS'03531'
p3242
I4
sS'03532'
p3243
I4
sS'03533'
p3244
I4
sS'03534'
p3245
I4
sS'03535'
p3246
I4
sS'03536'
p3247
I4
sS'03537'
p3248
I4
sS'03538'
p3249
I4
sS'03539'
p3250
I4
sS'00135'
p3251
I38
sS'00134'
p3252
I38
sS'00137'
p3253
I38
sS'00136'
p3254
I38
sS'00131'
p3255
I38
sS'00130'
p3256
I38
sS'00133'
p3257
I38
sS'00132'
p3258
I38
sS'00139'
p3259
I38
sS'00138'
p3260
I38
sS'04968'
p3261
I23
sS'04969'
p3262
I23
sS'04966'
p3263
I22
sS'04967'
p3264
I22
sS'04964'
p3265
I22
sS'04965'
p3266
I22
sS'04962'
p3267
I22
sS'04963'
p3268
I22
sS'04960'
p3269
I22
sS'04961'
p3270
I22
sS'01468'
p3271
I24
sS'01469'
p3272
I24
sS'01464'
p3273
I24
sS'01465'
p3274
I24
sS'01466'
p3275
I24
sS'01467'
p3276
I24
sS'01460'
p3277
I24
sS'01461'
p3278
I24
sS'01462'
p3279
I24
sS'01463'
p3280
I24
sS'05769'
p3281
I30
sS'05768'
p3282
I29
sS'05767'
p3283
I29
sS'05766'
p3284
I29
sS'05765'
p3285
I29
sS'05764'
p3286
I29
sS'05763'
p3287
I29
sS'05762'
p3288
I29
sS'05761'
p3289
I29
sS'05760'
p3290
I29
sS'01079'
p3291
I6
sS'01078'
p3292
I6
sS'01077'
p3293
I6
sS'01076'
p3294
I6
sS'01075'
p3295
I6
sS'01074'
p3296
I5
sS'01073'
p3297
I5
sS'01072'
p3298
I5
sS'01071'
p3299
I5
sS'01070'
p3300
I5
sS'05356'
p3301
I3
sS'05357'
p3302
I3
sS'05354'
p3303
I3
sS'05355'
p3304
I3
sS'05352'
p3305
I3
sS'05353'
p3306
I3
sS'05350'
p3307
I3
sS'05351'
p3308
I3
sS'03923'
p3309
I5
sS'02476'
p3310
I37
sS'02477'
p3311
I37
sS'02474'
p3312
I37
sS'02475'
p3313
I37
sS'02472'
p3314
I37
sS'02473'
p3315
I37
sS'02470'
p3316
I37
sS'02471'
p3317
I37
sS'02478'
p3318
I37
sS'02479'
p3319
I37
sS'04148'
p3320
I8
sS'04149'
p3321
I8
sS'04418'
p3322
I10
sS'04419'
p3323
I10
sS'04416'
p3324
I10
sS'04417'
p3325
I10
sS'04414'
p3326
I10
sS'04415'
p3327
I10
sS'04412'
p3328
I10
sS'04141'
p3329
I8
sS'04142'
p3330
I8
sS'04411'
p3331
I10
sS'00308'
p3332
I2
sS'00309'
p3333
I2
sS'00306'
p3334
I2
sS'00307'
p3335
I2
sS'00304'
p3336
I2
sS'00305'
p3337
I2
sS'00302'
p3338
I2
sS'00303'
p3339
I2
sS'00300'
p3340
I2
sS'00301'
p3341
I2
sS'00688'
p3342
I2
sS'02278'
p3343
I35
sS'03300'
p3344
I3
sS'02279'
p3345
I35
sS'03795'
p3346
I5
sS'02814'
p3347
I1
sS'02815'
p3348
I1
sS'02816'
p3349
I1
sS'02817'
p3350
I1
sS'02810'
p3351
I1
sS'02811'
p3352
I1
sS'02812'
p3353
I1
sS'02813'
p3354
I1
sS'02818'
p3355
I1
sS'02819'
p3356
I1
sS'01899'
p3357
I30
sS'01898'
p3358
I30
sS'01895'
p3359
I30
sS'01894'
p3360
I30
sS'01897'
p3361
I30
sS'01896'
p3362
I30
sS'01891'
p3363
I30
sS'01890'
p3364
I30
sS'01893'
p3365
I30
sS'01892'
p3366
I30
sS'02269'
p3367
I35
sS'02268'
p3368
I35
sS'02263'
p3369
I35
sS'02262'
p3370
I35
sS'02261'
p3371
I35
sS'02260'
p3372
I35
sS'02267'
p3373
I35
sS'02266'
p3374
I35
sS'02265'
p3375
I35
sS'02264'
p3376
I35
sS'03146'
p3377
I2
sS'04311'
p3378
I9
sS'04310'
p3379
I9
sS'04313'
p3380
I9
sS'01799'
p3381
I29
sS'04315'
p3382
I9
sS'04314'
p3383
I9
sS'04317'
p3384
I9
sS'04316'
p3385
I9
sS'04319'
p3386
I9
sS'01793'
p3387
I29
sS'01790'
p3388
I29
sS'01791'
p3389
I29
sS'01796'
p3390
I29
sS'01797'
p3391
I29
sS'01794'
p3392
I29
sS'01795'
p3393
I29
sS'03332'
p3394
I3
sS'03333'
p3395
I3
sS'03330'
p3396
I3
sS'03331'
p3397
I3
sS'03336'
p3398
I3
sS'03337'
p3399
I3
sS'03334'
p3400
I3
sS'03335'
p3401
I3
sS'03338'
p3402
I3
sS'03339'
p3403
I3
sS'05406'
p3404
I9
sS'05407'
p3405
I10
sS'05404'
p3406
I9
sS'05405'
p3407
I9
sS'05402'
p3408
I8
sS'05403'
p3409
I9
sS'05400'
p3410
I8
sS'05401'
p3411
I8
sS'05408'
p3412
I10
sS'05409'
p3413
I10
sS'01240'
p3414
I12
sS'01241'
p3415
I12
sS'01242'
p3416
I12
sS'01243'
p3417
I12
sS'01244'
p3418
I12
sS'01245'
p3419
I12
sS'01246'
p3420
I12
sS'01247'
p3421
I12
sS'01248'
p3422
I12
sS'01249'
p3423
I12
sS'02289'
p3424
I35
sS'02288'
p3425
I35
sS'00113'
p3426
I38
sS'00112'
p3427
I38
sS'00111'
p3428
I38
sS'00110'
p3429
I38
sS'00117'
p3430
I38
sS'00116'
p3431
I38
sS'00115'
p3432
I38
sS'00114'
p3433
I38
sS'00119'
p3434
I38
sS'00118'
p3435
I38
sS'04944'
p3436
I22
sS'04945'
p3437
I22
sS'04946'
p3438
I22
sS'04947'
p3439
I22
sS'04940'
p3440
I22
sS'04941'
p3441
I22
sS'04942'
p3442
I22
sS'04943'
p3443
I22
sS'04948'
p3444
I22
sS'04949'
p3445
I22
sS'00162'
p3446
I38
sS'01815'
p3447
I29
sS'01408'
p3448
I24
sS'01409'
p3449
I24
sS'01814'
p3450
I29
sS'01402'
p3451
I23
sS'01403'
p3452
I23
sS'01400'
p3453
I23
sS'01401'
p3454
I23
sS'01406'
p3455
I24
sS'01407'
p3456
I24
sS'01404'
p3457
I23
sS'01405'
p3458
I24
sS'01816'
p3459
I29
sS'01811'
p3460
I29
sS'01810'
p3461
I29
sS'01541'
p3462
I25
sS'01540'
p3463
I25
sS'04302'
p3464
I9
sS'04303'
p3465
I9
sS'03907'
p3466
I5
sS'04301'
p3467
I9
sS'04306'
p3468
I9
sS'04307'
p3469
I9
sS'04304'
p3470
I9
sS'03902'
p3471
I5
sS'00755'
p3472
I5
sS'00754'
p3473
I5
sS'00757'
p3474
I5
sS'00756'
p3475
I5
sS'00751'
p3476
I5
sS'00750'
p3477
I5
sS'00753'
p3478
I5
sS'00752'
p3479
I5
sS'00759'
p3480
I6
sS'00758'
p3481
I5
sS'03655'
p3482
I4
sS'02458'
p3483
I37
sS'02459'
p3484
I37
sS'03654'
p3485
I4
sS'02454'
p3486
I37
sS'02455'
p3487
I37
sS'02456'
p3488
I37
sS'02457'
p3489
I37
sS'02450'
p3490
I37
sS'02451'
p3491
I37
sS'02452'
p3492
I37
sS'02453'
p3493
I37
sS'04434'
p3494
I10
sS'04435'
p3495
I10
sS'04436'
p3496
I10
sS'04437'
p3497
I10
sS'04430'
p3498
I10
sS'04431'
p3499
I10
sS'04432'
p3500
I10
sS'04433'
p3501
I10
sS'03651'
p3502
I4
sS'04438'
p3503
I11
sS'04439'
p3504
I11
sS'03650'
p3505
I4
sS'00324'
p3506
I6
sS'00325'
p3507
I6
sS'00326'
p3508
I6
sS'04129'
p3509
I8
sS'00320'
p3510
I6
sS'00321'
p3511
I6
sS'00322'
p3512
I6
sS'00323'
p3513
I6
sS'04122'
p3514
I8
sS'04123'
p3515
I8
sS'04120'
p3516
I8
sS'04121'
p3517
I8
sS'00328'
p3518
I6
sS'00329'
p3519
I6
sS'04124'
p3520
I8
sS'04125'
p3521
I8
sS'04128'
p3522
I8
sS'00327'
p3523
I6
sS'04126'
p3524
I8
sS'04127'
p3525
I8
sS'05510'
p3526
I22
sS'05511'
p3527
I22
sS'05512'
p3528
I22
sS'05513'
p3529
I22
sS'05514'
p3530
I22
sS'05515'
p3531
I22
sS'03475'
p3532
I3
sS'03474'
p3533
I3
sS'03477'
p3534
I3
sS'03476'
p3535
I3
sS'03471'
p3536
I3
sS'03470'
p3537
I3
sS'03473'
p3538
I3
sS'03472'
p3539
I3
sS'05041'
p3540
I25
sS'03479'
p3541
I3
sS'03478'
p3542
I3
sS'02872'
p3543
I1
sS'02873'
p3544
I1
sS'02870'
p3545
I1
sS'02871'
p3546
I1
sS'02876'
p3547
I1
sS'02877'
p3548
I1
sS'02874'
p3549
I1
sS'02875'
p3550
I1
sS'02878'
p3551
I1
sS'02879'
p3552
I1
sS'05543'
p3553
I23
sS'05541'
p3554
I23
sS'00928'
p3555
I38
sS'00929'
p3556
I38
sS'00926'
p3557
I38
sS'00927'
p3558
I38
sS'00924'
p3559
I38
sS'00925'
p3560
I38
sS'00922'
p3561
I38
sS'00923'
p3562
I38
sS'00920'
p3563
I38
sS'00921'
p3564
I38
sS'00694'
p3565
I2
sS'00695'
p3566
I2
sS'00696'
p3567
I34
sS'00697'
p3568
I3
sS'00690'
p3569
I2
sS'00691'
p3570
I2
sS'00692'
p3571
I2
sS'00693'
p3572
I2
sS'00698'
p3573
I3
sS'00699'
p3574
I3
sS'02201'
p3575
I34
sS'02200'
p3576
I34
sS'02203'
p3577
I34
sS'02202'
p3578
I34
sS'02205'
p3579
I34
sS'02204'
p3580
I34
sS'02207'
p3581
I34
sS'02206'
p3582
I34
sS'02209'
p3583
I34
sS'02208'
p3584
I34
sS'03916'
p3585
I5
sS'03917'
p3586
I5
sS'03914'
p3587
I5
sS'03915'
p3588
I5
sS'03912'
p3589
I5
sS'03913'
p3590
I5
sS'03910'
p3591
I5
sS'03911'
p3592
I5
sS'04337'
p3593
I9
sS'04336'
p3594
I9
sS'04335'
p3595
I9
sS'04334'
p3596
I9
sS'04333'
p3597
I9
sS'04332'
p3598
I9
sS'04331'
p3599
I9
sS'04330'
p3600
I9
sS'03318'
p3601
I3
sS'03319'
p3602
I3
sS'03648'
p3603
I4
sS'03649'
p3604
I4
sS'03646'
p3605
I4
sS'03647'
p3606
I4
sS'03312'
p3607
I3
sS'03645'
p3608
I4
sS'03314'
p3609
I3
sS'03315'
p3610
I3
sS'03316'
p3611
I3
sS'03317'
p3612
I3
sS'05428'
p3613
I11
sS'05429'
p3614
I11
sS'05424'
p3615
I11
sS'05425'
p3616
I11
sS'05426'
p3617
I11
sS'05427'
p3618
I11
sS'05420'
p3619
I10
sS'05421'
p3620
I10
sS'05422'
p3621
I10
sS'05423'
p3622
I11
sS'05625'
p3623
I25
sS'04593'
p3624
I13
sS'04592'
p3625
I13
sS'04591'
p3626
I13
sS'04590'
p3627
I13
sS'04597'
p3628
I13
sS'04596'
p3629
I13
sS'04595'
p3630
I13
sS'04594'
p3631
I13
sS'04599'
p3632
I13
sS'04598'
p3633
I13
sS'02999'
p3634
I2
sS'02998'
p3635
I2
sS'02991'
p3636
I2
sS'02990'
p3637
I2
sS'02993'
p3638
I2
sS'02992'
p3639
I2
sS'02995'
p3640
I2
sS'02994'
p3641
I2
sS'02997'
p3642
I2
sS'02996'
p3643
I2
sS'00179'
p3644
I39
sS'00178'
p3645
I39
sS'00171'
p3646
I39
sS'00170'
p3647
I39
sS'00173'
p3648
I39
sS'00172'
p3649
I39
sS'00175'
p3650
I39
sS'00174'
p3651
I39
sS'00177'
p3652
I39
sS'00176'
p3653
I39
sS'02191'
p3654
I34
sS'02190'
p3655
I34
sS'02193'
p3656
I34
sS'02192'
p3657
I34
sS'02195'
p3658
I34
sS'02194'
p3659
I34
sS'02197'
p3660
I34
sS'02196'
p3661
I34
sS'02199'
p3662
I34
sS'02198'
p3663
I34
sS'04922'
p3664
I21
sS'04923'
p3665
I21
sS'04920'
p3666
I20
sS'04921'
p3667
I20
sS'04926'
p3668
I21
sS'04927'
p3669
I21
sS'04924'
p3670
I21
sS'04925'
p3671
I21
sS'04928'
p3672
I21
sS'04929'
p3673
I21
sS'01420'
p3674
I24
sS'01421'
p3675
I24
sS'01422'
p3676
I24
sS'01423'
p3677
I24
sS'01424'
p3678
I24
sS'01425'
p3679
I24
sS'01426'
p3680
I24
sS'01427'
p3681
I24
sS'01428'
p3682
I24
sS'01429'
p3683
I24
sS'04391'
p3684
I10
sS'04390'
p3685
I10
sS'04393'
p3686
I10
sS'04392'
p3687
I10
sS'04647'
p3688
I15
sS'04646'
p3689
I15
sS'04645'
p3690
I15
sS'04644'
p3691
I14
sS'00773'
p3692
I7
sS'00772'
p3693
I7
sS'00771'
p3694
I7
sS'00770'
p3695
I7
sS'00777'
p3696
I7
sS'00776'
p3697
I7
sS'00775'
p3698
I7
sS'00774'
p3699
I7
sS'00779'
p3700
I8
sS'00778'
p3701
I7
sS'02438'
p3702
I36
sS'02439'
p3703
I36
sS'02432'
p3704
I36
sS'02433'
p3705
I36
sS'02430'
p3706
I36
sS'02431'
p3707
I36
sS'02436'
p3708
I36
sS'02437'
p3709
I36
sS'02434'
p3710
I36
sS'02435'
p3711
I36
sS'04100'
p3712
I8
sS'04101'
p3713
I8
sS'04102'
p3714
I8
sS'04103'
p3715
I8
sS'04456'
p3716
I11
sS'04457'
p3717
I11
sS'04106'
p3718
I8
sS'04455'
p3719
I11
sS'04108'
p3720
I8
sS'04109'
p3721
I8
sS'04458'
p3722
I11
sS'04459'
p3723
I11
sS'00342'
p3724
I8
sS'00343'
p3725
I8
sS'00340'
p3726
I8
sS'00341'
p3727
I8
sS'00346'
p3728
I8
sS'00347'
p3729
I8
sS'00344'
p3730
I8
sS'00345'
p3731
I8
sS'00348'
p3732
I8
sS'00349'
p3733
I8
sS'01817'
p3734
I29
sS'03126'
p3735
I2
sS'05850'
p3736
I32
sS'01165'
p3737
I9
sS'01164'
p3738
I9
sS'01167'
p3739
I9
sS'01166'
p3740
I9
sS'01161'
p3741
I9
sS'01160'
p3742
I9
sS'01163'
p3743
I9
sS'01162'
p3744
I9
sS'01169'
p3745
I9
sS'03042'
p3746
I2
sS'03043'
p3747
I2
sS'03732'
p3748
I4
sS'03733'
p3749
I4
sS'03453'
p3750
I3
sS'03452'
p3751
I3
sS'03451'
p3752
I3
sS'03450'
p3753
I3
sS'03109'
p3754
I2
sS'03108'
p3755
I2
sS'03455'
p3756
I3
sS'03454'
p3757
I3
sS'03105'
p3758
I2
sS'03104'
p3759
I2
sS'03459'
p3760
I3
sS'03106'
p3761
I2
sS'03101'
p3762
I2
sS'03100'
p3763
I2
sS'03103'
p3764
I2
sS'03102'
p3765
I2
sS'02858'
p3766
I1
sS'02859'
p3767
I1
sS'02850'
p3768
I1
sS'02851'
p3769
I1
sS'02852'
p3770
I1
sS'02853'
p3771
I1
sS'02854'
p3772
I1
sS'02855'
p3773
I1
sS'02856'
p3774
I1
sS'02857'
p3775
I1
sS'00904'
p3776
I37
sS'00905'
p3777
I37
sS'00906'
p3778
I37
sS'00907'
p3779
I37
sS'00900'
p3780
I37
sS'00901'
p3781
I37
sS'00902'
p3782
I37
sS'00903'
p3783
I37
sS'00908'
p3784
I37
sS'00909'
p3785
I37
sS'02229'
p3786
I34
sS'02228'
p3787
I34
sS'02227'
p3788
I34
sS'02226'
p3789
I34
sS'02225'
p3790
I34
sS'02224'
p3791
I34
sS'02223'
p3792
I34
sS'02222'
p3793
I34
sS'02221'
p3794
I34
sS'02220'
p3795
I34
sS'05198'
p3796
I34
sS'05199'
p3797
I34
sS'05628'
p3798
I25
sS'05629'
p3799
I25
sS'05194'
p3800
I34
sS'05195'
p3801
I34
sS'05624'
p3802
I25
sS'05197'
p3803
I34
sS'05622'
p3804
I25
sS'05623'
p3805
I25
sS'05620'
p3806
I25
sS'05621'
p3807
I25
sS'01758'
p3808
I28
sS'01759'
p3809
I28
sS'01756'
p3810
I28
sS'01757'
p3811
I28
sS'01754'
p3812
I28
sS'01755'
p3813
I28
sS'01752'
p3814
I28
sS'01753'
p3815
I28
sS'01750'
p3816
I28
sS'01751'
p3817
I28
sS'03938'
p3818
I5
sS'03939'
p3819
I5
sS'03934'
p3820
I5
sS'03935'
p3821
I5
sS'03936'
p3822
I5
sS'03937'
p3823
I5
sS'03930'
p3824
I5
sS'03931'
p3825
I5
sS'03932'
p3826
I5
sS'03933'
p3827
I5
sS'01284'
p3828
I15
sS'01285'
p3829
I15
sS'05448'
p3830
I13
sS'05449'
p3831
I14
sS'01280'
p3832
I15
sS'01281'
p3833
I15
sS'01282'
p3834
I15
sS'01283'
p3835
I15
sS'05442'
p3836
I13
sS'05443'
p3837
I13
sS'05440'
p3838
I12
sS'05441'
p3839
I13
sS'05446'
p3840
I13
sS'05447'
p3841
I13
sS'05444'
p3842
I13
sS'05445'
p3843
I13
sS'03664'
p3844
I4
sS'00488'
p3845
I35
sS'03666'
p3846
I4
sS'03667'
p3847
I4
sS'03660'
p3848
I4
sS'03661'
p3849
I4
sS'03662'
p3850
I4
sS'03663'
p3851
I4
sS'00481'
p3852
I35
sS'00480'
p3853
I35
sS'00483'
p3854
I35
sS'00482'
p3855
I35
sS'00485'
p3856
I35
sS'00484'
p3857
I35
sS'00487'
p3858
I35
sS'00486'
p3859
I35
sS'04715'
p3860
I16
sS'04714'
p3861
I16
sS'04717'
p3862
I16
sS'04716'
p3863
I16
sS'04711'
p3864
I16
sS'04710'
p3865
I16
sS'04713'
p3866
I16
sS'04712'
p3867
I16
sS'04719'
p3868
I16
sS'04718'
p3869
I16
sS'00157'
p3870
I38
sS'00156'
p3871
I38
sS'00155'
p3872
I38
sS'00154'
p3873
I38
sS'00153'
p3874
I38
sS'00152'
p3875
I38
sS'00151'
p3876
I38
sS'00150'
p3877
I38
sS'00159'
p3878
I38
sS'00158'
p3879
I38
sS'03592'
p3880
I4
sS'03593'
p3881
I4
sS'03590'
p3882
I4
sS'03591'
p3883
I4
sS'03596'
p3884
I4
sS'03597'
p3885
I4
sS'03594'
p3886
I4
sS'03595'
p3887
I4
sS'03598'
p3888
I4
sS'03599'
p3889
I4
sS'04908'
p3890
I20
sS'04909'
p3891
I20
sS'04900'
p3892
I20
sS'04901'
p3893
I20
sS'04902'
p3894
I20
sS'04903'
p3895
I20
sS'04904'
p3896
I20
sS'04905'
p3897
I20
sS'04906'
p3898
I20
sS'04907'
p3899
I20
sS'01990'
p3900
I31
sS'01991'
p3901
I31
sS'01992'
p3902
I31
sS'01993'
p3903
I31
sS'01994'
p3904
I31
sS'01995'
p3905
I31
sS'01996'
p3906
I31
sS'01997'
p3907
I31
sS'01998'
p3908
I31
sS'01999'
p3909
I31
sS'03026'
p3910
I2
sS'01580'
p3911
I26
sS'03024'
p3912
I2
sS'01586'
p3913
I26
sS'00719'
p3914
I4
sS'00718'
p3915
I4
sS'00711'
p3916
I3
sS'00710'
p3917
I3
sS'00713'
p3918
I3
sS'00712'
p3919
I3
sS'00715'
p3920
I3
sS'00714'
p3921
I3
sS'00717'
p3922
I4
sS'00716'
p3923
I4
sS'02410'
p3924
I36
sS'02411'
p3925
I36
sS'02412'
p3926
I36
sS'02413'
p3927
I36
sS'02414'
p3928
I36
sS'02415'
p3929
I36
sS'02416'
p3930
I36
sS'02417'
p3931
I36
sS'02418'
p3932
I36
sS'02419'
p3933
I36
sS'05299'
p3934
I40
sS'05298'
p3935
I40
sS'05297'
p3936
I40
sS'05296'
p3937
I40
sS'05295'
p3938
I40
sS'05294'
p3939
I40
sS'05293'
p3940
I40
sS'05292'
p3941
I40
sS'05291'
p3942
I40
sS'05290'
p3943
I40
sS'04478'
p3944
I11
sS'04479'
p3945
I11
sS'04470'
p3946
I11
sS'04471'
p3947
I11
sS'04472'
p3948
I11
sS'04473'
p3949
I11
sS'04474'
p3950
I11
sS'04475'
p3951
I11
sS'04476'
p3952
I11
sS'04477'
p3953
I11
sS'00368'
p3954
I24
sS'00369'
p3955
I24
sS'00360'
p3956
I11
sS'00361'
p3957
I12
sS'00362'
p3958
I13
sS'00363'
p3959
I13
sS'00364'
p3960
I16
sS'00365'
p3961
I20
sS'00366'
p3962
I22
sS'00367'
p3963
I23
sS'03107'
p3964
I2
sS'01143'
p3965
I9
sS'01142'
p3966
I9
sS'01141'
p3967
I9
sS'01140'
p3968
I9
sS'01147'
p3969
I9
sS'01146'
p3970
I9
sS'01145'
p3971
I9
sS'01144'
p3972
I9
sS'01149'
p3973
I9
sS'01148'
p3974
I9
sS'03439'
p3975
I3
sS'03438'
p3976
I3
sS'03129'
p3977
I2
sS'03128'
p3978
I2
sS'03123'
p3979
I2
sS'03122'
p3980
I2
sS'03121'
p3981
I2
sS'03120'
p3982
I2
sS'03127'
p3983
I2
sS'03434'
p3984
I3
sS'03437'
p3985
I3
sS'03436'
p3986
I3
sS'00689'
p3987
I2
sS'01168'
p3988
I9
sS'03124'
p3989
I2
sS'00962'
p3990
I2
sS'00963'
p3991
I2
sS'00960'
p3992
I2
sS'00961'
p3993
I2
sS'00966'
p3994
I2
sS'00967'
p3995
I2
sS'00964'
p3996
I2
sS'00965'
p3997
I2
sS'00968'
p3998
I2
sS'00969'
p3999
I2
sS'05604'
p4000
I24
sS'05605'
p4001
I24
sS'05606'
p4002
I24
sS'05607'
p4003
I24
sS'05600'
p4004
I24
sS'05601'
p4005
I24
sS'05602'
p4006
I24
sS'05603'
p4007
I24
sS'05608'
p4008
I24
sS'05609'
p4009
I25
sS'01774'
p4010
I28
sS'01775'
p4011
I28
sS'01776'
p4012
I28
sS'01777'
p4013
I28
sS'01770'
p4014
I28
sS'01771'
p4015
I28
sS'01772'
p4016
I28
sS'01773'
p4017
I28
sS'01778'
p4018
I28
sS'01779'
p4019
I29
sS'03958'
p4020
I5
sS'03959'
p4021
I5
sS'03952'
p4022
I5
sS'03953'
p4023
I5
sS'03950'
p4024
I5
sS'03951'
p4025
I5
sS'03956'
p4026
I5
sS'03957'
p4027
I5
sS'03954'
p4028
I5
sS'03955'
p4029
I5
sS'05460'
p4030
I15
sS'05461'
p4031
I15
sS'05462'
p4032
I16
sS'05463'
p4033
I16
sS'05464'
p4034
I16
sS'05465'
p4035
I16
sS'05466'
p4036
I17
sS'05467'
p4037
I17
sS'05468'
p4038
I17
sS'05469'
p4039
I17
sS'03602'
p4040
I4
sS'03603'
p4041
I4
sS'03600'
p4042
I4
sS'03601'
p4043
I4
sS'03606'
p4044
I4
sS'03607'
p4045
I4
sS'03604'
p4046
I4
sS'03605'
p4047
I4
sS'03608'
p4048
I4
sS'03609'
p4049
I4
sS'02609'
p4050
I38
sS'02608'
p4051
I38
sS'02959'
p4052
I1
sS'02958'
p4053
I1
sS'02955'
p4054
I1
sS'02954'
p4055
I1
sS'02957'
p4056
I1
sS'02956'
p4057
I1
sS'02951'
p4058
I1
sS'02950'
p4059
I1
sS'02953'
p4060
I1
sS'02952'
p4061
I1
sS'04733'
p4062
I16
sS'04732'
p4063
I16
sS'04731'
p4064
I16
sS'04730'
p4065
I16
sS'04737'
p4066
I16
sS'04736'
p4067
I16
sS'04735'
p4068
I16
sS'04734'
p4069
I16
sS'04739'
p4070
I16
sS'04738'
p4071
I16
sS'01978'
p4072
I31
sS'01979'
p4073
I31
sS'01976'
p4074
I31
sS'01977'
p4075
I31
sS'01974'
p4076
I31
sS'01975'
p4077
I31
sS'01972'
p4078
I31
sS'01973'
p4079
I31
sS'01970'
p4080
I31
sS'01971'
p4081
I31
sS'02902'
p4082
I1
sS'02903'
p4083
I1
sS'02900'
p4084
I1
sS'02901'
p4085
I1
sS'02906'
p4086
I1
sS'02907'
p4087
I1
sS'02904'
p4088
I1
sS'02905'
p4089
I1
sS'01806'
p4090
I29
sS'01807'
p4091
I29
sS'01552'
p4092
I25
sS'01553'
p4093
I25
sS'01802'
p4094
I29
sS'01555'
p4095
I25
sS'01800'
p4096
I29
sS'01801'
p4097
I29
sS'04339'
p4098
I9
sS'04338'
p4099
I9
sS'00737'
p4100
I5
sS'00736'
p4101
I5
sS'00735'
p4102
I5
sS'00734'
p4103
I4
sS'00733'
p4104
I4
sS'00732'
p4105
I4
sS'00731'
p4106
I4
sS'00730'
p4107
I4
sS'00739'
p4108
I5
sS'00738'
p4109
I5
sS'02380'
p4110
I36
sS'02381'
p4111
I36
sS'02382'
p4112
I36
sS'02383'
p4113
I36
sS'02384'
p4114
I36
sS'02385'
p4115
I36
sS'02386'
p4116
I36
sS'02387'
p4117
I36
sS'02388'
p4118
I36
sS'02389'
p4119
I36
sS'03918'
p4120
I5
sS'03919'
p4121
I5
sS'04117'
p4122
I8
sS'04116'
p4123
I8
sS'04115'
p4124
I8
sS'04114'
p4125
I8
sS'04113'
p4126
I8
sS'04112'
p4127
I8
sS'04111'
p4128
I8
sS'04110'
p4129
I8
sS'03310'
p4130
I3
sS'03311'
p4131
I3
sS'03644'
p4132
I4
sS'03313'
p4133
I3
sS'03642'
p4134
I4
sS'03643'
p4135
I4
sS'03640'
p4136
I4
sS'03641'
p4137
I4
sS'05819'
p4138
I31
sS'05818'
p4139
I31
sS'05811'
p4140
I30
sS'05810'
p4141
I30
sS'05813'
p4142
I30
sS'05812'
p4143
I30
sS'05815'
p4144
I30
sS'05814'
p4145
I30
sS'05817'
p4146
I31
sS'05816'
p4147
I31
sS'01129'
p4148
I9
sS'01128'
p4149
I9
sS'01121'
p4150
I9
sS'01120'
p4151
I9
sS'01123'
p4152
I9
sS'01122'
p4153
I9
sS'01125'
p4154
I9
sS'01124'
p4155
I9
sS'01127'
p4156
I9
sS'01126'
p4157
I9
sS'03141'
p4158
I2
sS'03140'
p4159
I2
sS'03143'
p4160
I2
sS'03142'
p4161
I2
sS'03145'
p4162
I2
sS'03144'
p4163
I2
sS'03147'
p4164
I2
sS'03410'
p4165
I3
sS'03149'
p4166
I2
sS'03148'
p4167
I2
sS'03419'
p4168
I3
sS'03418'
p4169
I3
sS'02040'
p4170
I32
sS'00948'
p4171
I39
sS'00949'
p4172
I39
sS'03890'
p4173
I5
sS'00940'
p4174
I39
sS'00941'
p4175
I39
sS'00942'
p4176
I39
sS'00943'
p4177
I39
sS'00944'
p4178
I39
sS'00945'
p4179
I39
sS'00946'
p4180
I39
sS'00947'
p4181
I39
sS'05244'
p4182
I36
sS'05662'
p4183
I26
sS'05663'
p4184
I26
sS'05660'
p4185
I26
sS'05661'
p4186
I26
sS'05666'
p4187
I27
sS'05667'
p4188
I27
sS'05664'
p4189
I26
sS'05665'
p4190
I27
sS'05668'
p4191
I27
sS'05669'
p4192
I27
sS'01712'
p4193
I28
sS'01713'
p4194
I28
sS'01710'
p4195
I28
sS'01711'
p4196
I28
sS'01716'
p4197
I28
sS'01717'
p4198
I28
sS'01714'
p4199
I28
sS'01715'
p4200
I28
sS'01718'
p4201
I28
sS'01719'
p4202
I28
sS'03970'
p4203
I5
sS'03971'
p4204
I5
sS'03972'
p4205
I5
sS'03973'
p4206
I5
sS'03974'
p4207
I5
sS'03975'
p4208
I5
sS'03976'
p4209
I5
sS'03977'
p4210
I5
sS'03978'
p4211
I5
sS'03979'
p4212
I5
sS'05488'
p4213
I21
sS'05489'
p4214
I21
sS'05486'
p4215
I21
sS'05487'
p4216
I21
sS'05484'
p4217
I20
sS'05485'
p4218
I21
sS'05482'
p4219
I19
sS'05483'
p4220
I20
sS'05480'
p4221
I19
sS'05481'
p4222
I19
sS'02595'
p4223
I38
sS'02594'
p4224
I38
sS'02597'
p4225
I38
sS'02596'
p4226
I38
sS'02591'
p4227
I38
sS'02590'
p4228
I38
sS'02593'
p4229
I38
sS'02592'
p4230
I38
sS'02599'
p4231
I38
sS'02598'
p4232
I38
sS'04283'
p4233
I9
sS'04282'
p4234
I9
sS'04281'
p4235
I9
sS'04280'
p4236
I9
sS'04287'
p4237
I9
sS'04286'
p4238
I9
sS'04285'
p4239
I9
sS'04284'
p4240
I9
sS'04535'
p4241
I12
sS'04534'
p4242
I12
sS'04289'
p4243
I9
sS'04536'
p4244
I12
sS'04531'
p4245
I12
sS'04530'
p4246
I12
sS'04533'
p4247
I12
sS'04532'
p4248
I12
sS'00449'
p4249
I32
sS'00448'
p4250
I32
sS'00445'
p4251
I31
sS'00444'
p4252
I31
sS'00447'
p4253
I31
sS'00446'
p4254
I31
sS'00441'
p4255
I31
sS'00440'
p4256
I31
sS'00443'
p4257
I31
sS'00442'
p4258
I31
sS'03628'
p4259
I4
sS'03629'
p4260
I4
sS'02621'
p4261
I38
sS'02620'
p4262
I38
sS'02627'
p4263
I38
sS'02626'
p4264
I38
sS'02625'
p4265
I38
sS'02624'
p4266
I38
sS'03620'
p4267
I4
sS'03621'
p4268
I4
sS'03622'
p4269
I4
sS'03623'
p4270
I4
sS'03624'
p4271
I4
sS'03625'
p4272
I4
sS'03626'
p4273
I4
sS'03627'
p4274
I4
sS'02979'
p4275
I2
sS'02978'
p4276
I2
sS'02973'
p4277
I1
sS'02972'
p4278
I1
sS'02971'
p4279
I1
sS'02970'
p4280
I1
sS'02977'
p4281
I2
sS'02976'
p4282
I1
sS'02975'
p4283
I1
sS'02974'
p4284
I1
sS'04759'
p4285
I16
sS'04758'
p4286
I16
sS'04751'
p4287
I16
sS'04750'
p4288
I16
sS'04753'
p4289
I16
sS'04752'
p4290
I16
sS'04755'
p4291
I16
sS'04754'
p4292
I16
sS'04757'
p4293
I16
sS'04756'
p4294
I16
sS'00199'
p4295
I39
sS'00198'
p4296
I39
sS'00193'
p4297
I39
sS'00192'
p4298
I39
sS'00191'
p4299
I39
sS'00190'
p4300
I39
sS'00197'
p4301
I39
sS'00196'
p4302
I39
sS'00195'
p4303
I39
sS'00194'
p4304
I39
sS'03088'
p4305
I2
sS'03089'
p4306
I2
sS'03084'
p4307
I2
sS'03085'
p4308
I2
sS'03086'
p4309
I2
sS'03087'
p4310
I2
sS'03080'
p4311
I2
sS'03081'
p4312
I2
sS'03082'
p4313
I2
sS'03083'
p4314
I2
sS'01954'
p4315
I30
sS'01955'
p4316
I30
sS'01956'
p4317
I30
sS'01957'
p4318
I30
sS'01950'
p4319
I30
sS'01951'
p4320
I30
sS'01952'
p4321
I30
sS'01953'
p4322
I30
sS'01958'
p4323
I31
sS'01959'
p4324
I31
sS'01482'
p4325
I24
sS'01483'
p4326
I24
sS'01480'
p4327
I24
sS'01481'
p4328
I24
sS'01486'
p4329
I24
sS'01487'
p4330
I24
sS'01484'
p4331
I24
sS'01485'
p4332
I24
sS'01488'
p4333
I24
sS'01489'
p4334
I24
sS'00546'
p4335
I36
sS'00547'
p4336
I36
sS'05257'
p4337
I37
sS'05256'
p4338
I37
sS'05259'
p4339
I37
sS'02025'
p4340
I31
sS'02024'
p4341
I31
sS'02027'
p4342
I31
sS'05706'
p4343
I28
sS'02021'
p4344
I31
sS'02020'
p4345
I31
sS'02023'
p4346
I31
sS'02022'
p4347
I31
sS'00548'
p4348
I37
sS'02029'
p4349
I32
sS'02028'
p4350
I32
sS'00549'
p4351
I37
sS'02368'
p4352
I36
sS'02369'
p4353
I36
sS'02366'
p4354
I36
sS'02367'
p4355
I36
sS'02364'
p4356
I36
sS'02365'
p4357
I36
sS'02362'
p4358
I36
sS'02363'
p4359
I36
sS'02360'
p4360
I36
sS'02361'
p4361
I36
sS'02768'
p4362
I1
sS'02769'
p4363
I1
sS'05389'
p4364
I6
sS'05388'
p4365
I6
sS'05345'
p4366
I2
sS'05344'
p4367
I2
sS'05347'
p4368
I3
sS'05346'
p4369
I2
sS'05341'
p4370
I2
sS'05340'
p4371
I2
sS'05343'
p4372
I2
sS'05342'
p4373
I2
sS'05349'
p4374
I3
sS'05348'
p4375
I3
sS'05839'
p4376
I31
sS'05838'
p4377
I31
sS'01107'
p4378
I9
sS'01106'
p4379
I9
sS'01105'
p4380
I9
sS'01104'
p4381
I8
sS'01103'
p4382
I8
sS'01102'
p4383
I8
sS'01101'
p4384
I8
sS'01100'
p4385
I8
sS'01109'
p4386
I9
sS'01108'
p4387
I9
sS'03700'
p4388
I4
sS'03169'
p4389
I2
sS'03168'
p4390
I2
sS'03167'
p4391
I2
sS'03166'
p4392
I2
sS'03165'
p4393
I2
sS'03164'
p4394
I2
sS'03163'
p4395
I2
sS'03162'
p4396
I2
sS'03161'
p4397
I2
sS'03160'
p4398
I2
sS'00276'
p4399
I2
sS'00277'
p4400
I2
sS'00274'
p4401
I1
sS'00275'
p4402
I2
sS'00272'
p4403
I1
sS'00273'
p4404
I1
sS'00270'
p4405
I1
sS'00271'
p4406
I1
sS'00278'
p4407
I2
sS'00279'
p4408
I2
sS'05648'
p4409
I26
sS'05649'
p4410
I26
sS'05138'
p4411
I29
sS'05139'
p4412
I29
sS'05136'
p4413
I29
sS'05137'
p4414
I29
sS'05134'
p4415
I29
sS'05135'
p4416
I29
sS'05132'
p4417
I29
sS'05133'
p4418
I29
sS'05130'
p4419
I28
sS'05131'
p4420
I29
sS'01738'
p4421
I28
sS'01739'
p4422
I28
sS'01730'
p4423
I28
sS'01731'
p4424
I28
sS'01732'
p4425
I28
sS'01733'
p4426
I28
sS'01734'
p4427
I28
sS'01735'
p4428
I28
sS'01736'
p4429
I28
sS'01737'
p4430
I28
sS'03998'
p4431
I6
sS'03999'
p4432
I6
sS'03996'
p4433
I6
sS'03997'
p4434
I6
sS'03994'
p4435
I6
sS'03995'
p4436
I5
sS'03992'
p4437
I5
sS'03993'
p4438
I6
sS'03990'
p4439
I5
sS'03991'
p4440
I5
sS'04519'
p4441
I11
sS'04518'
p4442
I11
sS'04513'
p4443
I11
sS'04512'
p4444
I11
sS'04511'
p4445
I11
sS'04510'
p4446
I11
sS'04517'
p4447
I11
sS'04516'
p4448
I11
sS'04515'
p4449
I11
sS'04514'
p4450
I11
sS'00469'
p4451
I34
sS'00468'
p4452
I34
sS'00463'
p4453
I33
sS'00462'
p4454
I33
sS'00461'
p4455
I33
sS'00460'
p4456
I33
sS'00467'
p4457
I34
sS'00466'
p4458
I33
sS'00465'
p4459
I33
sS'00464'
p4460
I33
sS'02649'
p4461
I39
sS'02648'
p4462
I39
sS'02641'
p4463
I39
sS'02640'
p4464
I38
sS'02643'
p4465
I39
sS'02642'
p4466
I38
sS'02645'
p4467
I39
sS'02644'
p4468
I39
sS'02647'
p4469
I39
sS'02646'
p4470
I39
sS'04777'
p4471
I17
sS'04776'
p4472
I17
sS'04775'
p4473
I17
sS'04774'
p4474
I17
sS'04773'
p4475
I17
sS'04772'
p4476
I17
sS'04771'
p4477
I17
sS'04770'
p4478
I17
sS'04779'
p4479
I17
sS'04778'
p4480
I17
sS'02911'
p4481
I1
sS'02910'
p4482
I1
sS'02913'
p4483
I1
sS'02912'
p4484
I1
sS'02915'
p4485
I1
sS'02914'
p4486
I1
sS'02917'
p4487
I1
sS'02916'
p4488
I1
sS'02919'
p4489
I1
sS'02918'
p4490
I1
sS'01932'
p4491
I30
sS'01933'
p4492
I30
sS'01930'
p4493
I30
sS'01931'
p4494
I30
sS'01936'
p4495
I30
sS'01937'
p4496
I30
sS'01934'
p4497
I30
sS'01935'
p4498
I30
sS'01938'
p4499
I30
sS'01939'
p4500
I30
sS'03206'
p4501
I2
sS'03207'
p4502
I2
sS'03204'
p4503
I2
sS'03205'
p4504
I2
sS'03202'
p4505
I2
sS'03203'
p4506
I2
sS'03200'
p4507
I2
sS'03201'
p4508
I2
sS'03208'
p4509
I2
sS'03209'
p4510
I2
sS'02003'
p4511
I31
sS'02002'
p4512
I31
sS'02001'
p4513
I31
sS'02000'
p4514
I31
sS'02007'
p4515
I31
sS'02006'
p4516
I31
sS'02005'
p4517
I31
sS'02004'
p4518
I31
sS'02009'
p4519
I31
sS'02008'
p4520
I31
sS'02344'
p4521
I36
sS'02345'
p4522
I36
sS'02346'
p4523
I36
sS'02347'
p4524
I36
sS'02340'
p4525
I36
sS'02341'
p4526
I36
sS'02342'
p4527
I36
sS'02343'
p4528
I36
sS'02348'
p4529
I36
sS'02349'
p4530
I36
sS'05587'
p4531
I24
sS'05586'
p4532
I24
sS'05585'
p4533
I24
sS'05584'
p4534
I24
sS'05583'
p4535
I24
sS'05582'
p4536
I24
sS'05581'
p4537
I24
sS'05580'
p4538
I24
sS'05589'
p4539
I24
sS'05588'
p4540
I24
sS'01697'
p4541
I27
sS'01696'
p4542
I27
sS'01695'
p4543
I27
sS'01694'
p4544
I27
sS'01693'
p4545
I27
sS'01692'
p4546
I27
sS'01691'
p4547
I27
sS'01690'
p4548
I27
sS'01699'
p4549
I27
sS'01698'
p4550
I27
sS'03835'
p4551
I5
sS'03834'
p4552
I5
sS'03837'
p4553
I5
sS'03836'
p4554
I5
sS'03831'
p4555
I5
sS'03830'
p4556
I5
sS'03833'
p4557
I5
sS'03832'
p4558
I5
sS'03839'
p4559
I5
sS'03838'
p4560
I5
sS'05363'
p4561
I4
sS'05362'
p4562
I4
sS'05361'
p4563
I3
sS'05360'
p4564
I3
sS'05367'
p4565
I4
sS'05366'
p4566
I4
sS'05365'
p4567
I4
sS'05364'
p4568
I4
sS'05369'
p4569
I4
sS'05368'
p4570
I4
sS'04188'
p4571
I8
sS'04189'
p4572
I8
sS'04180'
p4573
I8
sS'04181'
p4574
I8
sS'04182'
p4575
I8
sS'04183'
p4576
I8
sS'04184'
p4577
I8
sS'04185'
p4578
I8
sS'04186'
p4579
I8
sS'04187'
p4580
I8
sS'00258'
p4581
I1
sS'00259'
p4582
I1
sS'00254'
p4583
I1
sS'00255'
p4584
I1
sS'00256'
p4585
I1
sS'00257'
p4586
I1
sS'00250'
p4587
I1
sS'00251'
p4588
I1
sS'00252'
p4589
I1
sS'00253'
p4590
I1
sS'00896'
p4591
I37
sS'00897'
p4592
I37
sS'00894'
p4593
I37
sS'00895'
p4594
I37
sS'00892'
p4595
I37
sS'00893'
p4596
I37
sS'00890'
p4597
I37
sS'00891'
p4598
I37
sS'00898'
p4599
I37
sS'00899'
p4600
I37
sS'05114'
p4601
I27
sS'05115'
p4602
I27
sS'05116'
p4603
I27
sS'05117'
p4604
I27
sS'05110'
p4605
I27
sS'05111'
p4606
I27
sS'05112'
p4607
I27
sS'05113'
p4608
I27
sS'05118'
p4609
I28
sS'05119'
p4610
I28
sS'04571'
p4611
I13
sS'04570'
p4612
I13
sS'04573'
p4613
I13
sS'04572'
p4614
I13
sS'04575'
p4615
I13
sS'04574'
p4616
I13
sS'04577'
p4617
I13
sS'04576'
p4618
I13
sS'04579'
p4619
I13
sS'04578'
p4620
I13
sS'00401'
p4621
I29
sS'00400'
p4622
I29
sS'00403'
p4623
I29
sS'00402'
p4624
I29
sS'00405'
p4625
I29
sS'00404'
p4626
I29
sS'00407'
p4627
I29
sS'00406'
p4628
I29
sS'00409'
p4629
I29
sS'00408'
p4630
I29
sS'02667'
p4631
I39
sS'02666'
p4632
I39
sS'02665'
p4633
I39
sS'02664'
p4634
I39
sS'02663'
p4635
I39
sS'02662'
p4636
I39
sS'02661'
p4637
I39
sS'02660'
p4638
I39
sS'02669'
p4639
I39
sS'02668'
p4640
I39
sS'04799'
p4641
I17
sS'04798'
p4642
I17
sS'04795'
p4643
I17
sS'04794'
p4644
I17
sS'04797'
p4645
I17
sS'04796'
p4646
I17
sS'04791'
p4647
I17
sS'04790'
p4648
I17
sS'04793'
p4649
I17
sS'04792'
p4650
I17
sS'01316'
p4651
I17
sS'01317'
p4652
I17
sS'01314'
p4653
I17
sS'01315'
p4654
I17
sS'01312'
p4655
I17
sS'01313'
p4656
I17
sS'01310'
p4657
I16
sS'01311'
p4658
I17
sS'02937'
p4659
I1
sS'02936'
p4660
I1
sS'02935'
p4661
I1
sS'02934'
p4662
I1
sS'02933'
p4663
I1
sS'02932'
p4664
I1
sS'01318'
p4665
I17
sS'01319'
p4666
I17
sS'01918'
p4667
I30
sS'01919'
p4668
I30
sS'01910'
p4669
I30
sS'01911'
p4670
I30
sS'01912'
p4671
I30
sS'01913'
p4672
I30
sS'01914'
p4673
I30
sS'01915'
p4674
I30
sS'01916'
p4675
I30
sS'01917'
p4676
I30
sS'03228'
p4677
I2
sS'03229'
p4678
I2
sS'03224'
p4679
I2
sS'03225'
p4680
I2
sS'03226'
p4681
I2
sS'03227'
p4682
I2
sS'03220'
p4683
I2
sS'03221'
p4684
I2
sS'03222'
p4685
I2
sS'03223'
p4686
I2
sS'05636'
p4687
I26
sS'02939'
p4688
I1
sS'02938'
p4689
I1
sS'02931'
p4690
I1
sS'02930'
p4691
I1
sS'02069'
p4692
I32
sS'02068'
p4693
I32
sS'04329'
p4694
I9
sS'02061'
p4695
I32
sS'02060'
p4696
I32
sS'02063'
p4697
I32
sS'02062'
p4698
I32
sS'02065'
p4699
I32
sS'02064'
p4700
I32
sS'02067'
p4701
I32
sS'02066'
p4702
I32
sS'04898'
p4703
I19
sS'04899'
p4704
I20
sS'04892'
p4705
I19
sS'04893'
p4706
I19
sS'04890'
p4707
I19
sS'04891'
p4708
I19
sS'04896'
p4709
I19
sS'04897'
p4710
I19
sS'04894'
p4711
I19
sS'04895'
p4712
I19
sS'00791'
p4713
I8
sS'00790'
p4714
I8
sS'00793'
p4715
I8
sS'00792'
p4716
I8
sS'00795'
p4717
I8
sS'00794'
p4718
I8
sS'00797'
p4719
I8
sS'00796'
p4720
I8
sS'00799'
p4721
I8
sS'00798'
p4722
I8
sS'02322'
p4723
I35
sS'02323'
p4724
I35
sS'02320'
p4725
I35
sS'02321'
p4726
I35
sS'02326'
p4727
I35
sS'02327'
p4728
I35
sS'02324'
p4729
I35
sS'02325'
p4730
I35
sS'02328'
p4731
I35
sS'02329'
p4732
I35
sS'03929'
p4733
I5
sS'03928'
p4734
I5
sS'04452'
p4735
I11
sS'04453'
p4736
I11
sS'04450'
p4737
I11
sS'02498'
p4738
I37
sS'02499'
p4739
I37
sS'04451'
p4740
I11
sS'02490'
p4741
I37
sS'02491'
p4742
I37
sS'02492'
p4743
I37
sS'02493'
p4744
I37
sS'02494'
p4745
I37
sS'02495'
p4746
I37
sS'02496'
p4747
I37
sS'02497'
p4748
I37
sS'04454'
p4749
I11
sS'04107'
p4750
I8
sS'05569'
p4751
I24
sS'05568'
p4752
I24
sS'05565'
p4753
I24
sS'05564'
p4754
I24
sS'05567'
p4755
I24
sS'05566'
p4756
I24
sS'05561'
p4757
I23
sS'05560'
p4758
I23
sS'05563'
p4759
I23
sS'05562'
p4760
I23
sS'01679'
p4761
I27
sS'01678'
p4762
I27
sS'01675'
p4763
I27
sS'01674'
p4764
I27
sS'01677'
p4765
I27
sS'01676'
p4766
I27
sS'01671'
p4767
I27
sS'01670'
p4768
I27
sS'01673'
p4769
I27
sS'01672'
p4770
I27
sS'03813'
p4771
I5
sS'03812'
p4772
I5
sS'03811'
p4773
I5
sS'03810'
p4774
I5
sS'03817'
p4775
I5
sS'03816'
p4776
I5
sS'03815'
p4777
I5
sS'03814'
p4778
I5
sS'03819'
p4779
I5
sS'03818'
p4780
I5
sS'05309'
p4781
I40
sS'05308'
p4782
I40
sS'05301'
p4783
I40
sS'05300'
p4784
I40
sS'05303'
p4785
I40
sS'05302'
p4786
I40
sS'05305'
p4787
I40
sS'05304'
p4788
I40
sS'05307'
p4789
I40
sS'05306'
p4790
I40
sS'00238'
p4791
I40
sS'00239'
p4792
I40
sS'00232'
p4793
I40
sS'00233'
p4794
I40
sS'00230'
p4795
I40
sS'00231'
p4796
I40
sS'00236'
p4797
I40
sS'00237'
p4798
I40
sS'00234'
p4799
I40
sS'00235'
p4800
I40
sS'05172'
p4801
I32
sS'05173'
p4802
I32
sS'05170'
p4803
I32
sS'05171'
p4804
I32
sS'05176'
p4805
I32
sS'05177'
p4806
I32
sS'05174'
p4807
I32
sS'05175'
p4808
I32
sS'05178'
p4809
I33
sS'05179'
p4810
I33
sS'04229'
p4811
I9
sS'04228'
p4812
I9
sS'04559'
p4813
I12
sS'04558'
p4814
I12
sS'04557'
p4815
I12
sS'04556'
p4816
I12
sS'04227'
p4817
I9
sS'04554'
p4818
I12
sS'04221'
p4819
I9
sS'04552'
p4820
I12
sS'04551'
p4821
I12
sS'04550'
p4822
I12
sS'00429'
p4823
I30
sS'00428'
p4824
I30
sS'00427'
p4825
I30
sS'00426'
p4826
I30
sS'00425'
p4827
I30
sS'00424'
p4828
I30
sS'00423'
p4829
I30
sS'00422'
p4830
I30
sS'00421'
p4831
I30
sS'00420'
p4832
I30
sS'02689'
p4833
I39
sS'02688'
p4834
I39
sS'02685'
p4835
I39
sS'02684'
p4836
I39
sS'02687'
p4837
I39
sS'02686'
p4838
I39
sS'02681'
p4839
I39
sS'02680'
p4840
I39
sS'02683'
p4841
I39
sS'02682'
p4842
I39
sS'05796'
p4843
I30
sS'05797'
p4844
I30
sS'05794'
p4845
I30
sS'05795'
p4846
I30
sS'05792'
p4847
I30
sS'05793'
p4848
I30
sS'05790'
p4849
I30
sS'05791'
p4850
I30
sS'05798'
p4851
I30
sS'05799'
p4852
I30
sS'01086'
p4853
I6
sS'01087'
p4854
I6
sS'01084'
p4855
I6
sS'01085'
p4856
I6
sS'01082'
p4857
I6
sS'01083'
p4858
I6
sS'01080'
p4859
I6
sS'01081'
p4860
I6
sS'01088'
p4861
I6
sS'01089'
p4862
I6
sS'03798'
p4863
I5
sS'03799'
p4864
I5
sS'03028'
p4865
I2
sS'03029'
p4866
I2
sS'03794'
p4867
I5
sS'03027'
p4868
I2
sS'03796'
p4869
I5
sS'03025'
p4870
I2
sS'03022'
p4871
I2
sS'03023'
p4872
I2
sS'03792'
p4873
I5
sS'03793'
p4874
I5
sS'02285'
p4875
I35
sS'05069'
p4876
I25
sS'01338'
p4877
I20
sS'01339'
p4878
I21
sS'01334'
p4879
I19
sS'03457'
p4880
I3
sS'01336'
p4881
I20
sS'01337'
p4882
I20
sS'01330'
p4883
I18
sS'01331'
p4884
I18
sS'01332'
p4885
I19
sS'03456'
p4886
I3
sS'03248'
p4887
I3
sS'03249'
p4888
I3
sS'03247'
p4889
I3
sS'03458'
p4890
I3
sS'00531'
p4891
I36
sS'02047'
p4892
I32
sS'02046'
p4893
I32
sS'02045'
p4894
I32
sS'02044'
p4895
I32
sS'02043'
p4896
I32
sS'02042'
p4897
I32
sS'02041'
p4898
I32
sS'05717'
p4899
I28
sS'05246'
p4900
I36
sS'02049'
p4901
I32
sS'02048'
p4902
I32
sS'05247'
p4903
I36
sS'05240'
p4904
I36
sS'00168'
p4905
I39
sS'05241'
p4906
I36
sS'00169'
p4907
I39
sS'05242'
p4908
I36
sS'05243'
p4909
I36
sS'02308'
p4910
I35
sS'02309'
p4911
I35
sS'03588'
p4912
I4
sS'02300'
p4913
I35
sS'02301'
p4914
I35
sS'02302'
p4915
I35
sS'02303'
p4916
I35
sS'02304'
p4917
I35
sS'02305'
p4918
I35
sS'02306'
p4919
I35
sS'02307'
p4920
I35
sS'01536'
p4921
I25
sS'01537'
p4922
I25
sS'01534'
p4923
I25
sS'01535'
p4924
I25
sS'01532'
p4925
I25
sS'01533'
p4926
I25
sS'01530'
p4927
I25
sS'01531'
p4928
I25
sS'01538'
p4929
I25
sS'01539'
p4930
I25
sS'05099'
p4931
I26
sS'05098'
p4932
I26
sS'05549'
p4933
I23
sS'05548'
p4934
I23
sS'05091'
p4935
I26
sS'05542'
p4936
I23
sS'05093'
p4937
I26
sS'05540'
p4938
I23
sS'05095'
p4939
I26
sS'05094'
p4940
I26
sS'05097'
p4941
I26
sS'05096'
p4942
I26
sS'01659'
p4943
I27
sS'01658'
p4944
I27
sS'01653'
p4945
I27
sS'01652'
p4946
I27
sS'01651'
p4947
I27
sS'01650'
p4948
I27
sS'01657'
p4949
I27
sS'01656'
p4950
I27
sS'01655'
p4951
I27
sS'01654'
p4952
I27
sS'03879'
p4953
I5
sS'03878'
p4954
I5
sS'03871'
p4955
I5
sS'03870'
p4956
I5
sS'03873'
p4957
I5
sS'03872'
p4958
I5
sS'03875'
p4959
I5
sS'03874'
p4960
I5
sS'03877'
p4961
I5
sS'03876'
p4962
I5
sS'05327'
p4963
I2
sS'05326'
p4964
I1
sS'05325'
p4965
I1
sS'05324'
p4966
I1
sS'05323'
p4967
I1
sS'05322'
p4968
I1
sS'05321'
p4969
I1
sS'05320'
p4970
I1
sS'05329'
p4971
I2
sS'05328'
p4972
I2
sS'04056'
p4973
I8
sS'04057'
p4974
I8
sS'04054'
p4975
I8
sS'04055'
p4976
I8
sS'04052'
p4977
I8
sS'04053'
p4978
I8
sS'04050'
p4979
I8
sS'04051'
p4980
I8
sS'04058'
p4981
I8
sS'04059'
p4982
I8
sS'00210'
p4983
I40
sS'00211'
p4984
I40
sS'00212'
p4985
I40
sS'00213'
p4986
I40
sS'00214'
p4987
I40
sS'00215'
p4988
I40
sS'00216'
p4989
I40
sS'00217'
p4990
I40
sS'00218'
p4991
I40
sS'00219'
p4992
I40
sS'03499'
p4993
I4
sS'03498'
p4994
I4
sS'03497'
p4995
I4
sS'03496'
p4996
I3
sS'03495'
p4997
I3
sS'03494'
p4998
I3
sS'03493'
p4999
I3
sS'03492'
p5000
I3
sS'03491'
p5001
I3
sS'03490'
p5002
I3
sS'02519'
p5003
I37
sS'02518'
p5004
I37
sS'02515'
p5005
I37
sS'02514'
p5006
I37
sS'02517'
p5007
I37
sS'02516'
p5008
I37
sS'02511'
p5009
I37
sS'02510'
p5010
I37
sS'02513'
p5011
I37
sS'02512'
p5012
I37
sS'05158'
p5013
I30
sS'05159'
p5014
I30
sS'05150'
p5015
I30
sS'05151'
p5016
I30
sS'05152'
p5017
I30
sS'05153'
p5018
I30
sS'05154'
p5019
I30
sS'05155'
p5020
I30
sS'05156'
p5021
I30
sS'05157'
p5022
I30
sS'04209'
p5023
I8
sS'04208'
p5024
I9
sS'04203'
p5025
I8
sS'04202'
p5026
I8
sS'04201'
p5027
I8
sS'04200'
p5028
I8
sS'04207'
p5029
I9
sS'04206'
p5030
I8
sS'04205'
p5031
I8
sS'04204'
p5032
I8
sS'03004'
p5033
I2
sS'03005'
p5034
I2
sS'03006'
p5035
I2
sS'03007'
p5036
I2
sS'03000'
p5037
I2
sS'03001'
p5038
I2
sS'03002'
p5039
I2
sS'03003'
p5040
I2
sS'03008'
p5041
I2
sS'03009'
p5042
I2
sS'01358'
p5043
I22
sS'01359'
p5044
I22
sS'01352'
p5045
I22
sS'01353'
p5046
I22
sS'01350'
p5047
I22
sS'01351'
p5048
I22
sS'01356'
p5049
I22
sS'01357'
p5050
I22
sS'01354'
p5051
I22
sS'01355'
p5052
I22
sS'03260'
p5053
I3
sS'03261'
p5054
I3
sS'03262'
p5055
I3
sS'03263'
p5056
I3
sS'03264'
p5057
I3
sS'03265'
p5058
I3
sS'03266'
p5059
I3
sS'03267'
p5060
I3
sS'03268'
p5061
I3
sS'03269'
p5062
I3
sS'00005'
p5063
I34
sS'00004'
p5064
I34
sS'00007'
p5065
I34
sS'00006'
p5066
I34
sS'00001'
p5067
I34
sS'00003'
p5068
I34
sS'00002'
p5069
I34
sS'00009'
p5070
I34
sS'00008'
p5071
I34
sS'04858'
p5072
I18
sS'04859'
p5073
I18
sS'04856'
p5074
I18
sS'04857'
p5075
I18
sS'04854'
p5076
I18
sS'04855'
p5077
I18
sS'04852'
p5078
I18
sS'04853'
p5079
I18
sS'04850'
p5080
I18
sS'04851'
p5081
I18
sS'01518'
p5082
I25
sS'01519'
p5083
I25
sS'01514'
p5084
I24
sS'01515'
p5085
I24
sS'01516'
p5086
I24
sS'01517'
p5087
I25
sS'01510'
p5088
I24
sS'01511'
p5089
I24
sS'01512'
p5090
I24
sS'01513'
p5091
I24
sS'05521'
p5092
I23
sS'05520'
p5093
I23
sS'05523'
p5094
I23
sS'05522'
p5095
I23
sS'05525'
p5096
I23
sS'05524'
p5097
I23
sS'05527'
p5098
I23
sS'05526'
p5099
I23
sS'05529'
p5100
I23
sS'05528'
p5101
I23
sS'01631'
p5102
I27
sS'01630'
p5103
I27
sS'01633'
p5104
I27
sS'01632'
p5105
I27
sS'01635'
p5106
I27
sS'01634'
p5107
I27
sS'01637'
p5108
I27
sS'01636'
p5109
I27
sS'01639'
p5110
I27
sS'01638'
p5111
I27
sS'03857'
p5112
I5
sS'03856'
p5113
I5
sS'03855'
p5114
I5
sS'03854'
p5115
I5
sS'03853'
p5116
I5
sS'03852'
p5117
I5
sS'03851'
p5118
I5
sS'03850'
p5119
I5
sS'03859'
p5120
I5
sS'03858'
p5121
I5
sS'01189'
p5122
I10
sS'01188'
p5123
I10
sS'01187'
p5124
I10
sS'01186'
p5125
I10
sS'01185'
p5126
I10
sS'01184'
p5127
I10
sS'01183'
p5128
I10
sS'01182'
p5129
I10
sS'01181'
p5130
I10
sS'01180'
p5131
I10
sS'04690'
p5132
I15
sS'04691'
p5133
I15
sS'04692'
p5134
I16
sS'04693'
p5135
I16
sS'04694'
p5136
I16
sS'04695'
p5137
I16
sS'04696'
p5138
I16
sS'04697'
p5139
I16
sS'04698'
p5140
I16
sS'04699'
p5141
I16
sS'00580'
p5142
I38
sS'00581'
p5143
I38
sS'00582'
p5144
I38
sS'00583'
p5145
I38
sS'00584'
p5146
I38
sS'00585'
p5147
I38
sS'00586'
p5148
I38
sS'00587'
p5149
I38
sS'00588'
p5150
I38
sS'00589'
p5151
I38
sS'02726'
p5152
I40
sS'02727'
p5153
I40
sS'02724'
p5154
I40
sS'02725'
p5155
I40
sS'02722'
p5156
I40
sS'02723'
p5157
I40
sS'02720'
p5158
I40
sS'02721'
p5159
I40
sS'02728'
p5160
I40
sS'02729'
p5161
I40
sS'04078'
p5162
I8
sS'04079'
p5163
I8
sS'04074'
p5164
I8
sS'04075'
p5165
I8
sS'04076'
p5166
I8
sS'04077'
p5167
I8
sS'04070'
p5168
I8
sS'04071'
p5169
I8
sS'04072'
p5170
I8
sS'04073'
p5171
I8
sS'02539'
p5172
I37
sS'02538'
p5173
I37
sS'02533'
p5174
I37
sS'02532'
p5175
I37
sS'02531'
p5176
I37
sS'02530'
p5177
I37
sS'02537'
p5178
I37
sS'02536'
p5179
I37
sS'02535'
p5180
I37
sS'02534'
p5181
I37
sS'03787'
p5182
I5
sS'03786'
p5183
I5
sS'03789'
p5184
I5
sS'03788'
p5185
I5
sS'04261'
p5186
I9
sS'04260'
p5187
I9
sS'04263'
p5188
I9
sS'04262'
p5189
I9
sS'04265'
p5190
I9
sS'04264'
p5191
I9
sS'04267'
p5192
I9
sS'04266'
p5193
I9
sS'04269'
p5194
I9
sS'04268'
p5195
I9
sS'03062'
p5196
I2
sS'03063'
p5197
I2
sS'03060'
p5198
I2
sS'03061'
p5199
I2
sS'03066'
p5200
I2
sS'03067'
p5201
I2
sS'03064'
p5202
I2
sS'03065'
p5203
I2
sS'03068'
p5204
I2
sS'03069'
p5205
I2
sS'01370'
p5206
I22
sS'01371'
p5207
I22
sS'01372'
p5208
I22
sS'01373'
p5209
I22
sS'01374'
p5210
I22
sS'01375'
p5211
I22
sS'01376'
p5212
I22
sS'01377'
p5213
I22
sS'01378'
p5214
I22
sS'01379'
p5215
I22
sS'03288'
p5216
I3
sS'03289'
p5217
I3
sS'03286'
p5218
I3
sS'03287'
p5219
I3
sS'03284'
p5220
I3
sS'03285'
p5221
I3
sS'03282'
p5222
I3
sS'03283'
p5223
I3
sS'03280'
p5224
I3
sS'03281'
p5225
I3
sS'05626'
p5226
I25
sS'05627'
p5227
I25
sS'05196'
p5228
I34
sS'04485'
p5229
I11
sS'04484'
p5230
I11
sS'04487'
p5231
I11
sS'04486'
p5232
I11
sS'04481'
p5233
I11
sS'04480'
p5234
I11
sS'04483'
p5235
I11
sS'02929'
p5236
I1
sS'05190'
p5237
I33
sS'04489'
p5238
I11
sS'04488'
p5239
I11
sS'05191'
p5240
I34
sS'00395'
p5241
I28
sS'00394'
p5242
I28
sS'00397'
p5243
I29
sS'00396'
p5244
I28
sS'00391'
p5245
I28
sS'05192'
p5246
I34
sS'00393'
p5247
I28
sS'00392'
p5248
I28
sS'05193'
p5249
I34
sS'00399'
p5250
I29
sS'00398'
p5251
I29
sS'02883'
p5252
I1
sS'02882'
p5253
I1
sS'02881'
p5254
I1
sS'02880'
p5255
I1
sS'02887'
p5256
I1
sS'02886'
p5257
I1
sS'02885'
p5258
I1
sS'02884'
p5259
I1
sS'02889'
p5260
I1
sS'02888'
p5261
I1
sS'02922'
p5262
I1
sS'02923'
p5263
I1
sS'05040'
p5264
I25
sS'00023'
p5265
I35
sS'00022'
p5266
I35
sS'00021'
p5267
I35
sS'00020'
p5268
I35
sS'00027'
p5269
I35
sS'00026'
p5270
I35
sS'00025'
p5271
I35
sS'00024'
p5272
I35
sS'00029'
p5273
I35
sS'00028'
p5274
I35
sS'04874'
p5275
I19
sS'04875'
p5276
I19
sS'02089'
p5277
I33
sS'02088'
p5278
I33
sS'04870'
p5279
I19
sS'04871'
p5280
I19
sS'04872'
p5281
I19
sS'04873'
p5282
I19
sS'02083'
p5283
I32
sS'02082'
p5284
I32
sS'02081'
p5285
I32
sS'02080'
p5286
I32
sS'02087'
p5287
I33
sS'02086'
p5288
I33
sS'02085'
p5289
I32
sS'02084'
p5290
I32
sS'01578'
p5291
I26
sS'01579'
p5292
I26
sS'01572'
p5293
I25
sS'01573'
p5294
I25
sS'01570'
p5295
I25
sS'01571'
p5296
I25
sS'01576'
p5297
I26
sS'01577'
p5298
I26
sS'01574'
p5299
I26
sS'01575'
p5300
I26
sS'05059'
p5301
I25
sS'05058'
p5302
I25
sS'05509'
p5303
I22
sS'05508'
p5304
I22
sS'05055'
p5305
I25
sS'05054'
p5306
I25
sS'05057'
p5307
I25
sS'05056'
p5308
I25
sS'05051'
p5309
I25
sS'05050'
p5310
I25
sS'05053'
p5311
I25
sS'04462'
p5312
I11
sS'01619'
p5313
I27
sS'01618'
p5314
I27
sS'01617'
p5315
I27
sS'01616'
p5316
I27
sS'01615'
p5317
I27
sS'01614'
p5318
I27
sS'01613'
p5319
I26
sS'01612'
p5320
I26
sS'01611'
p5321
I26
sS'01610'
p5322
I26
sS'01286'
p5323
I15
sS'01287'
p5324
I15
sS'00376'
p5325
I26
sS'05123'
p5326
I28
sS'00625'
p5327
I40
sS'00624'
p5328
I40
sS'00627'
p5329
I40
sS'00626'
p5330
I40
sS'00621'
p5331
I39
sS'00620'
p5332
I39
sS'00623'
p5333
I40
sS'00622'
p5334
I40
sS'01288'
p5335
I15
sS'00629'
p5336
I40
sS'00628'
p5337
I40
sS'01289'
p5338
I15
sS'00370'
p5339
I24
sS'04678'
p5340
I15
sS'04679'
p5341
I15
sS'04676'
p5342
I15
sS'04677'
p5343
I15
sS'04674'
p5344
I15
sS'04675'
p5345
I15
sS'04672'
p5346
I15
sS'04673'
p5347
I15
sS'04670'
p5348
I15
sS'04671'
p5349
I15
sS'00568'
p5350
I37
sS'00569'
p5351
I37
sS'00566'
p5352
I37
sS'00567'
p5353
I37
sS'00564'
p5354
I37
sS'00565'
p5355
I37
sS'00562'
p5356
I37
sS'00563'
p5357
I37
sS'00560'
p5358
I37
sS'00561'
p5359
I37
sS'02708'
p5360
I40
sS'02709'
p5361
I40
sS'02704'
p5362
I39
sS'02705'
p5363
I39
sS'02706'
p5364
I40
sS'02707'
p5365
I40
sS'02700'
p5366
I39
sS'02701'
p5367
I39
sS'02702'
p5368
I39
sS'02703'
p5369
I39
sS'04018'
p5370
I6
sS'04019'
p5371
I6
sS'04012'
p5372
I6
sS'04013'
p5373
I6
sS'04010'
p5374
I6
sS'04011'
p5375
I6
sS'04016'
p5376
I6
sS'04017'
p5377
I6
sS'04014'
p5378
I6
sS'04015'
p5379
I6
sS'03545'
p5380
I4
sS'03544'
p5381
I4
sS'03547'
p5382
I4
sS'03546'
p5383
I4
sS'03541'
p5384
I4
sS'03540'
p5385
I4
sS'03543'
p5386
I4
sS'03542'
p5387
I4
sS'03549'
p5388
I4
sS'03548'
p5389
I4
sS'02146'
p5390
I34
sS'02147'
p5391
I34
sS'02144'
p5392
I34
sS'02145'
p5393
I34
sS'02142'
p5394
I34
sS'02143'
p5395
I34
sS'02140'
p5396
I34
sS'02141'
p5397
I34
sS'02148'
p5398
I34
sS'02149'
p5399
I34
sS'00818'
p5400
I9
sS'00819'
p5401
I9
sS'00816'
p5402
I9
sS'00817'
p5403
I9
sS'00814'
p5404
I9
sS'00815'
p5405
I9
sS'00812'
p5406
I9
sS'00813'
p5407
I9
sS'00810'
p5408
I9
sS'00811'
p5409
I9
sS'02551'
p5410
I37
sS'02550'
p5411
I37
sS'02553'
p5412
I37
sS'02552'
p5413
I37
sS'02555'
p5414
I37
sS'02554'
p5415
I37
sS'02557'
p5416
I38
sS'02556'
p5417
I37
sS'02559'
p5418
I38
sS'02558'
p5419
I38
sS'00489'
p5420
I35
sS'03665'
p5421
I4
sS'03668'
p5422
I4
sS'03669'
p5423
I4
sS'05266'
p5424
I37
sS'05267'
p5425
I38
sS'05264'
p5426
I37
sS'05265'
p5427
I37
sS'05262'
p5428
I37
sS'05263'
p5429
I37
sS'05260'
p5430
I37
sS'05261'
p5431
I37
sS'05268'
p5432
I38
sS'05269'
p5433
I38
sS'02298'
p5434
I35
sS'02299'
p5435
I35
sS'04249'
p5436
I9
sS'04248'
p5437
I9
sS'04247'
p5438
I9
sS'04246'
p5439
I9
sS'04245'
p5440
I9
sS'04244'
p5441
I9
sS'04243'
p5442
I9
sS'04242'
p5443
I9
sS'04241'
p5444
I9
sS'04240'
p5445
I9
sS'03048'
p5446
I2
sS'03049'
p5447
I2
sS'03738'
p5448
I4
sS'03739'
p5449
I4
sS'03736'
p5450
I4
sS'03041'
p5451
I2
sS'03734'
p5452
I4
sS'03735'
p5453
I4
sS'03044'
p5454
I2
sS'03045'
p5455
I2
sS'03730'
p5456
I4
sS'03047'
p5457
I2
sS'02292'
p5458
I35
sS'02293'
p5459
I35
sS'01398'
p5460
I23
sS'01399'
p5461
I23
sS'01396'
p5462
I23
sS'01397'
p5463
I23
sS'01394'
p5464
I23
sS'01395'
p5465
I23
sS'01392'
p5466
I23
sS'01393'
p5467
I23
sS'01390'
p5468
I23
sS'01391'
p5469
I23
sS'04104'
p5470
I8
sS'03444'
p5471
I3
sS'03445'
p5472
I3
sS'03114'
p5473
I2
sS'03115'
p5474
I2
sS'04105'
p5475
I8
sS'03440'
p5476
I3
sS'03441'
p5477
I3
sS'03110'
p5478
I2
sS'03111'
p5479
I2
sS'02802'
p5480
I1
sS'04088'
p5481
I8
sS'05238'
p5482
I36
sS'00049'
p5483
I37
sS'00048'
p5484
I37
sS'00041'
p5485
I35
sS'00040'
p5486
I35
sS'00043'
p5487
I35
sS'00042'
p5488
I35
sS'00045'
p5489
I35
sS'00044'
p5490
I35
sS'00047'
p5491
I36
sS'00046'
p5492
I35
sS'04812'
p5493
I17
sS'04813'
p5494
I17
sS'04810'
p5495
I17
sS'04811'
p5496
I17
sS'04816'
p5497
I17
sS'04817'
p5498
I17
sS'04814'
p5499
I17
sS'04815'
p5500
I17
sS'04818'
p5501
I17
sS'04819'
p5502
I17
sS'05233'
p5503
I36
sS'05232'
p5504
I36
sS'05235'
p5505
I36
sS'05234'
p5506
I36
sS'05237'
p5507
I36
sS'05236'
p5508
I36
sS'01550'
p5509
I25
sS'01551'
p5510
I25
sS'01804'
p5511
I29
sS'01805'
p5512
I29
sS'01554'
p5513
I25
sS'01803'
p5514
I29
sS'01556'
p5515
I25
sS'01557'
p5516
I25
sS'01558'
p5517
I25
sS'01559'
p5518
I25
sS'01808'
p5519
I29
sS'01809'
p5520
I29
sS'05079'
p5521
I26
sS'05078'
p5522
I26
sS'05073'
p5523
I26
sS'05072'
p5524
I25
sS'05071'
p5525
I25
sS'05070'
p5526
I25
sS'05077'
p5527
I26
sS'05076'
p5528
I26
sS'05075'
p5529
I26
sS'05074'
p5530
I26
sS'03899'
p5531
I5
sS'03898'
p5532
I5
sS'03893'
p5533
I5
sS'03892'
p5534
I5
sS'03891'
p5535
I5
sS'02928'
p5536
I1
sS'03897'
p5537
I5
sS'03896'
p5538
I5
sS'03895'
p5539
I5
sS'03894'
p5540
I5
sS'00603'
p5541
I39
sS'00602'
p5542
I39
sS'00601'
p5543
I39
sS'00600'
p5544
I39
sS'00607'
p5545
I39
sS'00606'
p5546
I39
sS'00605'
p5547
I39
sS'00604'
p5548
I39
sS'00609'
p5549
I39
sS'00608'
p5550
I39
sS'04654'
p5551
I15
sS'04655'
p5552
I15
sS'04656'
p5553
I15
sS'04657'
p5554
I15
sS'04650'
p5555
I15
sS'04651'
p5556
I15
sS'04652'
p5557
I15
sS'04653'
p5558
I15
sS'04658'
p5559
I15
sS'04659'
p5560
I15
sS'00544'
p5561
I36
sS'00545'
p5562
I36
sS'04388'
p5563
I10
sS'04389'
p5564
I10
sS'00540'
p5565
I36
sS'00541'
p5566
I36
sS'00542'
p5567
I36
sS'00543'
p5568
I36
sS'04382'
p5569
I10
sS'04383'
p5570
I10
sS'04380'
p5571
I10
sS'04381'
p5572
I10
sS'04386'
p5573
I10
sS'04387'
p5574
I10
sS'04384'
p5575
I10
sS'04385'
p5576
I10
sS'05381'
p5577
I5
sS'05380'
p5578
I5
sS'05383'
p5579
I5
sS'05382'
p5580
I5
sS'05385'
p5581
I5
sS'05384'
p5582
I5
sS'05387'
p5583
I6
sS'05386'
p5584
I5
sS'02762'
p5585
I1
sS'02763'
p5586
I1
sS'02760'
p5587
I1
sS'02761'
p5588
I1
sS'02766'
p5589
I1
sS'02767'
p5590
I1
sS'02764'
p5591
I1
sS'02765'
p5592
I1
sS'04030'
p5593
I6
sS'04031'
p5594
I6
sS'04032'
p5595
I6
sS'04033'
p5596
I6
sS'04034'
p5597
I6
sS'04035'
p5598
I6
sS'04036'
p5599
I6
sS'04037'
p5600
I7
sS'04038'
p5601
I7
sS'04039'
p5602
I7
sS'03387'
p5603
I3
sS'03386'
p5604
I3
sS'03385'
p5605
I3
sS'03384'
p5606
I3
sS'03383'
p5607
I3
sS'03382'
p5608
I3
sS'03381'
p5609
I3
sS'03380'
p5610
I3
sS'03389'
p5611
I3
sS'03388'
p5612
I3
sS'01235'
p5613
I12
sS'01234'
p5614
I12
sS'01237'
p5615
I12
sS'01236'
p5616
I12
sS'01231'
p5617
I12
sS'01230'
p5618
I11
sS'01233'
p5619
I12
sS'01232'
p5620
I12
sS'01239'
p5621
I12
sS'01238'
p5622
I12
sS'03563'
p5623
I4
sS'03562'
p5624
I4
sS'03561'
p5625
I4
sS'03560'
p5626
I4
sS'03567'
p5627
I4
sS'03566'
p5628
I4
sS'03565'
p5629
I4
sS'03564'
p5630
I4
sS'03569'
p5631
I4
sS'03568'
p5632
I4
sS'02168'
p5633
I34
sS'02169'
p5634
I34
sS'02164'
p5635
I34
sS'02165'
p5636
I34
sS'02166'
p5637
I34
sS'02167'
p5638
I34
sS'02160'
p5639
I34
sS'02161'
p5640
I34
sS'02162'
p5641
I34
sS'02163'
p5642
I34
sS'00834'
p5643
I9
sS'00835'
p5644
I9
sS'00836'
p5645
I9
sS'00837'
p5646
I9
sS'00830'
p5647
I9
sS'00831'
p5648
I9
sS'00832'
p5649
I9
sS'00833'
p5650
I9
sS'00838'
p5651
I9
sS'00839'
p5652
I10
sS'02579'
p5653
I38
sS'02578'
p5654
I38
sS'02577'
p5655
I38
sS'02576'
p5656
I38
sS'02575'
p5657
I38
sS'02574'
p5658
I38
sS'02573'
p5659
I38
sS'02572'
p5660
I38
sS'02571'
p5661
I38
sS'02570'
p5662
I38
sS'05248'
p5663
I36
sS'05249'
p5664
I36
sS'05718'
p5665
I28
sS'05719'
p5666
I28
sS'05716'
p5667
I28
sS'05245'
p5668
I36
sS'05714'
p5669
I28
sS'05715'
p5670
I28
sS'05712'
p5671
I28
sS'05713'
p5672
I28
sS'05710'
p5673
I28
sS'05711'
p5674
I28
sS'01008'
p5675
I4
sS'01009'
p5676
I4
sS'01006'
p5677
I4
sS'01007'
p5678
I4
sS'01004'
p5679
I4
sS'01005'
p5680
I4
sS'01002'
p5681
I4
sS'01003'
p5682
I4
sS'01000'
p5683
I4
sS'01001'
p5684
I4
sS'03714'
p5685
I4
sS'03715'
p5686
I4
sS'03716'
p5687
I4
sS'03717'
p5688
I4
sS'03710'
p5689
I4
sS'03711'
p5690
I4
sS'03712'
p5691
I4
sS'03713'
p5692
I4
sS'03718'
p5693
I4
sS'03719'
p5694
I4
sS'00067'
p5695
I36
sS'00066'
p5696
I36
sS'00065'
p5697
I36
sS'00064'
p5698
I36
sS'00063'
p5699
I36
sS'00062'
p5700
I36
sS'00061'
p5701
I36
sS'00060'
p5702
I36
sS'00069'
p5703
I36
sS'00068'
p5704
I36
sS'04838'
p5705
I18
sS'04839'
p5706
I18
sS'04830'
p5707
I18
sS'04831'
p5708
I18
sS'04832'
p5709
I18
sS'04833'
p5710
I18
sS'04834'
p5711
I18
sS'04835'
p5712
I18
sS'04836'
p5713
I18
sS'04837'
p5714
I18
sS'04225'
p5715
I9
sS'04224'
p5716
I9
sS'04555'
p5717
I12
sS'04226'
p5718
I9
sS'04553'
p5719
I12
sS'04220'
p5720
I9
sS'00073'
p5721
I37
sS'04223'
p5722
I9
sS'04222'
p5723
I9
sS'00079'
p5724
I37
sS'01828'
p5725
I29
sS'01829'
p5726
I29
sS'01824'
p5727
I29
sS'01825'
p5728
I29
sS'01826'
p5729
I29
sS'01827'
p5730
I29
sS'01820'
p5731
I29
sS'01821'
p5732
I29
sS'01822'
p5733
I29
sS'01823'
p5734
I29
sS'00993'
p5735
I3
sS'00992'
p5736
I3
sS'00991'
p5737
I3
sS'00990'
p5738
I3
sS'00997'
p5739
I4
sS'00996'
p5740
I3
sS'00995'
p5741
I3
sS'00994'
p5742
I3
sS'00999'
p5743
I4
sS'00998'
p5744
I4
sS'00669'
p5745
I2
sS'00668'
p5746
I2
sS'00667'
p5747
I2
sS'00666'
p5748
I2
sS'05011'
p5749
I24
sS'05010'
p5750
I24
sS'05013'
p5751
I24
sS'05012'
p5752
I24
sS'05015'
p5753
I24
sS'05014'
p5754
I24
sS'05017'
p5755
I24
sS'05016'
p5756
I24
sS'05019'
p5757
I24
sS'05018'
p5758
I24
sS'02290'
p5759
I35
sS'02291'
p5760
I35
sS'02296'
p5761
I35
sS'02297'
p5762
I35
sS'02294'
p5763
I35
sS'02295'
p5764
I35
sS'04632'
p5765
I14
sS'04633'
p5766
I14
sS'04630'
p5767
I14
sS'04631'
p5768
I14
sS'04636'
p5769
I14
sS'04637'
p5770
I14
sS'04634'
p5771
I14
sS'04635'
p5772
I14
sS'04638'
p5773
I14
sS'04639'
p5774
I14
sS'00522'
p5775
I36
sS'00523'
p5776
I36
sS'00520'
p5777
I36
sS'00521'
p5778
I36
sS'00526'
p5779
I36
sS'00527'
p5780
I36
sS'00524'
p5781
I36
sS'00525'
p5782
I36
sS'00528'
p5783
I36
sS'00529'
p5784
I36
sS'02740'
p5785
I40
sS'02741'
p5786
I40
sS'02742'
p5787
I1
sS'02743'
p5788
I1
sS'02744'
p5789
I1
sS'02745'
p5790
I1
sS'02746'
p5791
I1
sS'02747'
p5792
I1
sS'02748'
p5793
I1
sS'02749'
p5794
I1
sS'00298'
p5795
I2
sS'00299'
p5796
I2
sS'00290'
p5797
I2
sS'00291'
p5798
I2
sS'00292'
p5799
I2
sS'00293'
p5800
I2
sS'00294'
p5801
I2
sS'00295'
p5802
I2
sS'00296'
p5803
I2
sS'00297'
p5804
I2
sS'03369'
p5805
I3
sS'03368'
p5806
I3
sS'03365'
p5807
I3
sS'03364'
p5808
I3
sS'03367'
p5809
I3
sS'03366'
p5810
I3
sS'03361'
p5811
I3
sS'03360'
p5812
I3
sS'03363'
p5813
I3
sS'03362'
p5814
I3
sS'01213'
p5815
I11
sS'01212'
p5816
I10
sS'01211'
p5817
I10
sS'01210'
p5818
I10
sS'01217'
p5819
I11
sS'01216'
p5820
I11
sS'01215'
p5821
I11
sS'01214'
p5822
I11
sS'01219'
p5823
I11
sS'01218'
p5824
I11
sS'03509'
p5825
I4
sS'03508'
p5826
I4
sS'03501'
p5827
I4
sS'03500'
p5828
I4
sS'03503'
p5829
I4
sS'03502'
p5830
I3
sS'03505'
p5831
I4
sS'03504'
p5832
I4
sS'03507'
p5833
I4
sS'03506'
p5834
I4
sS'05086'
p5835
I26
s.